(lp0
I32769
aI131075
aI98310
aI32775
aI131083
aI229392
aI196634
aI65564
aI32798
aI32805
aI98343
aI98344
aI98345
aI163884
aI163887
aI98352
aI196658
aI71006
aI65590
aI163898
aI163902
aI131140
aI202081
aI114700
aI30554
aI71010
aI131153
aI98386
aI32852
aI65621
aI196698
aI98405
aI32870
aI98407
aI131177
aI163946
aI98414
aI229487
aI131184
aI71360
aI32885
aI163962
aI60095
aI131196
aI98430
aI163975
aI137
aI65676
aI98448
aI98452
aI169326
aI163990
aI163993
aI81946
aI158
aI32931
aI164
aI98470
aI164015
aI131250
aI32958
aI195
aI98500
aI98510
aI158413
aI209
aI131282
aI65749
aI215
aI164057
aI131109
aI98530
aI65767
aI98538
aI164077
aI147496
aI196855
aI254
aI255
aI196869
aI98566
aI196871
aI98568
aI131337
aI196874
aI131341
aI33039
aI131345
aI164115
aI196884
aI33048
aI284
aI49200
aI33061
aI164134
aI98600
aI65833
aI164138
aI131381
aI196923
aI131391
aI33089
aI98626
aI164164
aI92897
aI33101
aI131406
aI65872
aI338
aI131414
aI196952
aI164188
aI351
aI354
aI120209
aI164201
aI98667
aI164205
aI65904
aI191208
aI65909
aI120212
aI65916
aI158442
aI131456
aI98697
aI394
aI396
aI33168
aI229783
aI164250
aI164257
aI33186
aI65957
aI197032
aI164265
aI131500
aI33201
aI33203
aI98743
aI131512
aI197052
aI33214
aI98751
aI164288
aI131521
aI451
aI131528
aI197065
aI131531
aI465
aI11001
aI98777
aI33242
aI66017
aI136614
aI164326
aI98792
aI164332
aI163922
aI494
aI76541
aI131568
aI500
aI33272
aI109311
aI98812
aI66046
aI21931
aI131592
aI98830
aI98831
aI164370
aI164371
aI142084
aI5551
aI164382
aI544
aI197154
aI33316
aI33319
aI66088
aI197162
aI66093
aI33326
aI169395
aI197173
aI98870
aI131639
aI98874
aI572
aI197181
aI585
aI66126
aI98895
aI164444
aI131678
aI197216
aI98915
aI66155
aI98924
aI196424
aI627
aI131707
aI197244
aI33405
aI33411
aI164486
aI33415
aI653
aI33423
aI66192
aI180335
aI164508
aI669
aI197281
aI33444
aI680
aI33457
aI164533
aI185801
aI99002
aI197308
aI131773
aI99006
aI117
aI706
aI33477
aI710
aI99023
aI99025
aI99027
aI33495
aI66270
aI66276
aI66277
aI99046
aI33513
aI33514
aI747
aI66286
aI131824
aI33522
aI125505
aI33535
aI131841
aI66306
aI66307
aI131845
aI779
aI202200
aI99097
aI164634
aI66331
aI99102
aI66336
aI99107
aI66341
aI197415
aI809
aI164650
aI99115
aI197421
aI99120
aI197428
aI131902
aI164683
aI131916
aI847
aI33616
aI99155
aI173518
aI33625
aI99165
aI33631
aI66400
aI196752
aI33635
aI197483
aI164721
aI197491
aI99189
aI33655
aI99192
aI33658
aI99196
aI99201
aI898
aI202219
aI164741
aI99209
aI33674
aI197518
aI66449
aI915
aI164756
aI197525
aI921
aI131994
aI33709
aI66478
aI33716
aI131230
aI99254
aI132028
aI99263
aI33731
aI66500
aI132041
aI33740
aI976
aI99282
aI197587
aI980
aI164825
aI99292
aI66530
aI197607
aI164843
aI33777
aI99317
aI99319
aI66552
aI54783
aI33790
aI1023
aI1027
aI164874
aI99341
aI197648
aI230418
aI99350
aI256857
aI132122
aI131247
aI136709
aI99360
aI164902
aI66599
aI66600
aI174940
aI66603
aI1068
aI164909
aI132142
aI43869
aI16563
aI33844
aI164917
aI132152
aI164921
aI99388
aI1086
aI132164
aI197704
aI103948
aI28406
aI197715
aI132183
aI66649
aI99421
aI33887
aI33888
aI99426
aI66671
aI71187
aI99444
aI65726
aI1143
aI33913
aI33914
aI99452
aI132221
aI99454
aI99456
aI197767
aI99464
aI1165
aI132238
aI131267
aI165016
aI66720
aI66723
aI1195
aI33964
aI99502
aI103965
aI66737
aI99506
aI132278
aI1212
aI66749
aI197823
aI66752
aI192170
aI66757
aI165063
aI132297
aI165066
aI66769
aI132314
aI1244
aI34013
aI66782
aI34016
aI132327
aI132329
aI165099
aI165102
aI132343
aI1275
aI34047
aI174976
aI99586
aI34051
aI197903
aI34069
aI131289
aI132376
aI165145
aI1307
aI165149
aI66846
aI165151
aI66850
aI132390
aI132393
aI197933
aI197935
aI34097
aI34101
aI197949
aI132420
aI142220
aI132426
aI99660
aI165205
aI99670
aI197979
aI197980
aI103995
aI99684
aI99685
aI34150
aI202300
aI198000
aI198007
aI1400
aI165246
aI66945
aI198019
aI198021
aI66955
aI82157
aI66968
aI165275
aI99744
aI99745
aI1442
aI132519
aI66987
aI1453
aI158621
aI198066
aI34227
aI165300
aI132534
aI132540
aI99775
aI165314
aI136779
aI34248
aI202316
aI99788
aI165325
aI1487
aI1494
aI34264
aI198105
aI34270
aI99808
aI99815
aI1512
aI165354
aI99824
aI99827
aI147710
aI132598
aI1528
aI34298
aI196863
aI67069
aI169557
aI99845
aI1542
aI34311
aI34314
aI198161
aI198162
aI34324
aI132630
aI104025
aI99866
aI132637
aI165407
aI165409
aI1573
aI99879
aI132650
aI67118
aI67123
aI99893
aI198206
aI165441
aI198210
aI99909
aI34375
aI99915
aI165453
aI99919
aI34384
aI132690
aI99923
aI34390
aI67161
aI132701
aI99941
aI165478
aI99946
aI213266
aI61158
aI165493
aI132727
aI198265
aI34428
aI169578
aI1664
aI34433
aI34435
aI22124
aI16663
aI165517
aI165518
aI165519
aI65816
aI1685
aI99991
aI99998
aI1696
aI34465
aI100005
aI76743
aI132780
aI1714
aI100025
aI67262
aI132800
aI109515
aI1732
aI165573
aI34503
aI34505
aI67276
aI1749
aI100062
aI293
aI1771
aI67308
aI34542
aI185981
aI100084
aI1782
aI67328
aI1799
aI34570
aI1803
aI198412
aI165646
aI100112
aI165650
aI76761
aI198435
aI1832
aI51344
aI34610
aI34612
aI132918
aI198456
aI132921
aI100158
aI67391
aI34625
aI1867
aI1868
aI67405
aI100174
aI1871
aI1875
aI132952
aI1881
aI165722
aI100188
aI1890
aI34659
aI34664
aI34665
aI34675
aI100212
aI67448
aI1913
aI34684
aI132992
aI100226
aI132997
aI98625
aI1929
aI67474
aI100245
aI1944
aI67481
aI34717
aI100258
aI34724
aI67496
aI165801
aI133034
aI67500
aI34734
aI1969
aI34748
aI34751
aI1991
aI198604
aI64443
aI133072
aI100306
aI136868
aI60410
aI67550
aI198623
aI100322
aI165860
aI34792
aI198635
aI198638
aI34814
aI100356
aI133133
aI100366
aI165904
aI198677
aI34841
aI133148
aI100381
aI100383
aI34849
aI34852
aI165932
aI165934
aI67632
aI198706
aI67642
aI67645
aI133188
aI198733
aI2127
aI2130
aI2132
aI133209
aI67674
aI133211
aI165984
aI2145
aI34919
aI34921
aI198762
aI2157
aI34934
aI133240
aI67712
aI100481
aI229739
aI198788
aI109590
aI2185
aI100490
aI115054
aI109594
aI198815
aI100513
aI100521
aI133292
aI133298
aI35009
aI67778
aI2246
aI35018
aI2251
aI67790
aI100559
aI133328
aI100567
aI2269
aI133342
aI35041
aI2274
aI133352
aI166123
aI49533
aI166133
aI2295
aI100601
aI67836
aI166142
aI35071
aI33152
aI67845
aI35085
aI166162
aI2327
aI166173
aI2338
aI2341
aI67880
aI2345
aI100650
aI100655
aI2356
aI35128
aI166202
aI67902
aI35139
aI67913
aI166218
aI67915
aI67917
aI198992
aI166226
aI166230
aI35162
aI67936
aI65936
aI133475
aI133476
aI100710
aI35180
aI194703
aI2414
aI67956
aI35191
aI67960
aI67963
aI102647
aI166275
aI199047
aI2443
aI2445
aI199054
aI199060
aI35225
aI199068
aI133535
aI166307
aI35237
aI35246
aI68016
aI133556
aI100792
aI100794
aI100796
aI197025
aI68041
aI2506
aI100812
aI131490
aI2511
aI166357
aI100827
aI68067
aI35302
aI35305
aI133611
aI35308
aI2543
aI100850
aI186112
aI35331
aI133641
aI166410
aI2573
aI166416
aI68114
aI100883
aI35349
aI68118
aI100887
aI100896
aI35361
aI2595
aI133677
aI100910
aI100913
aI133690
aI35387
aI100925
aI100937
aI35403
aI68173
aI35410
aI35415
aI133720
aI133721
aI169743
aI35420
aI2653
aI2655
aI100972
aI166511
aI166514
aI166518
aI133753
aI35456
aI35458
aI29550
aI133767
aI199307
aI133776
aI101012
aI35487
aI133792
aI133793
aI2727
aI49607
aI2735
aI35510
aI133827
aI199368
aI35529
aI166602
aI191607
aI166605
aI2768
aI35538
aI68308
aI147918
aI166614
aI166615
aI68315
aI2781
aI166623
aI2787
aI101095
aI101100
aI35566
aI180272
aI169769
aI2808
aI133881
aI2811
aI96113
aI208000
aI68362
aI199438
aI2832
aI68370
aI68372
aI35611
aI2846
aI2849
aI35621
aI35623
aI133929
aI101166
aI68403
aI101173
aI133944
aI2873
aI133946
aI166715
aI2877
aI133951
aI133953
aI35653
aI133959
aI68424
aI68432
aI35669
aI68438
aI68439
aI101208
aI133978
aI158863
aI5946
aI213477
aI199520
aI166757
aI166759
aI71484
aI199535
aI101232
aI35704
aI191636
aI134010
aI199548
aI35710
aI68483
aI101253
aI101259
aI35724
aI101261
aI101263
aI2960
aI199569
aI68505
aI101276
aI199587
aI2983
aI134060
aI68526
aI68529
aI134068
aI101302
aI134071
aI199610
aI35776
aI35777
aI134083
aI199621
aI101318
aI199623
aI3016
aI153422
aI3030
aI3032
aI35802
aI101352
aI101359
aI166898
aI3061
aI35834
aI101372
aI68606
aI199683
aI35844
aI199689
aI35855
aI35862
aI166938
aI35867
aI199710
aI134176
aI199713
aI55131
aI166954
aI35883
aI35884
aI199725
aI101423
aI101424
aI199730
aI101436
aI35903
aI35905
aI199747
aI27830
aI199751
aI199753
aI199756
aI68685
aI134222
aI35919
aI166993
aI101458
aI35924
aI3168
aI68705
aI35938
aI68707
aI68709
aI134248
aI167020
aI16914
aI35954
aI35956
aI68726
aI68727
aI68728
aI35961
aI199802
aI35963
aI101500
aI68736
aI68738
aI3208
aI134284
aI68749
aI35984
aI101538
aI36004
aI167079
aI36008
aI36011
aI101549
aI134323
aI134324
aI134327
aI134328
aI68793
aI49695
aI36030
aI167107
aI134340
aI232646
aI101582
aI3280
aI202616
aI134355
aI3287
aI68826
aI134363
aI101596
aI167135
aI167140
aI199914
aI68845
aI134385
aI101619
aI101621
aI101624
aI101628
aI101637
aI36102
aI202625
aI101641
aI36106
aI36112
aI232724
aI167190
aI167194
aI134427
aI167196
aI3360
aI101677
aI36151
aI167224
aI36153
aI167226
aI101695
aI3394
aI55179
aI68942
aI68944
aI200018
aI134484
aI3413
aI200030
aI36192
aI36207
aI134516
aI171422
aI200058
aI167294
aI101763
aI200069
aI68998
aI3473
aI3480
aI101785
aI134561
aI69028
aI3495
aI101801
aI36268
aI3501
aI167343
aI101812
aI36277
aI69046
aI101818
aI200125
aI101823
aI134592
aI134593
aI87969
aI101833
aI36305
aI36308
aI167381
aI36312
aI101851
aI69089
aI101858
aI3555
aI167398
aI175356
aI167404
aI148050
aI167408
aI69106
aI82516
aI36350
aI134656
aI167429
aI101896
aI38828
aI134667
aI167438
aI36375
aI192159
aI3615
aI101923
aI101931
aI167469
aI36401
aI134706
aI197214
aI134711
aI36412
aI167485
aI101954
aI36421
aI3654
aI200269
aI36434
aI131683
aI69208
aI200286
aI36448
aI101987
aI134756
aI134760
aI134762
aI167532
aI101997
aI3694
aI3701
aI69238
aI200311
aI134779
aI36481
aI148075
aI36484
aI197228
aI102035
aI3732
aI69273
aI3739
aI36508
aI69279
aI36512
aI134821
aI3750
aI3752
aI167602
aI98931
aI102071
aI3768
aI3769
aI200380
aI69313
aI36548
aI134862
aI134869
aI200406
aI69344
aI200417
aI213627
aI102116
aI167658
aI3822
aI148093
aI3824
aI134900
aI200440
aI36602
aI36604
aI137610
aI102143
aI36608
aI167682
aI69381
aI134918
aI167689
aI3852
aI134927
aI134929
aI102162
aI98947
aI200468
aI102165
aI36634
aI102174
aI36639
aI3873
aI167715
aI167718
aI167721
aI36654
aI3890
aI3891
aI69450
aI66189
aI134993
aI167762
aI134995
aI102228
aI134997
aI36701
aI36707
aI36709
aI36711
aI191804
aI3946
aI36718
aI167793
aI36727
aI200569
aI102266
aI69501
aI167812
aI102278
aI167819
aI69516
aI109891
aI102293
aI167834
aI36765
aI159045
aI102308
aI167846
aI137201
aI4008
aI69545
aI4014
aI98973
aI142664
aI200626
aI200627
aI135093
aI135095
aI135100
aI200637
aI135104
aI36801
aI167879
aI167884
aI71672
aI200660
aI36823
aI167901
aI36837
aI167912
aI135146
aI36844
aI109906
aI4082
aI36856
aI102393
aI36858
aI36859
aI102397
aI135167
aI4097
aI200706
aI200707
aI4102
aI102409
aI69642
aI69643
aI167948
aI167953
aI36886
aI4120
aI36890
aI69661
aI4128
aI69667
aI69672
aI135212
aI135217
aI4146
aI135224
aI102461
aI135230
aI197301
aI135234
aI36931
aI102469
aI4171
aI168012
aI168015
aI102481
aI102482
aI135253
aI69719
aI69723
aI200797
aI135266
aI135269
aI102503
aI69972
aI135275
aI120850
aI17085
aI36979
aI135284
aI200821
aI69752
aI4218
aI4224
aI200837
aI135302
aI102536
aI4233
aI135306
aI135307
aI200851
aI69785
aI135324
aI37028
aI51425
aI102580
aI135349
aI37047
aI135358
aI200895
aI186401
aI4297
aI227098
aI102607
aI37072
aI37079
aI102620
aI102622
aI135392
aI200932
aI102631
aI4328
aI102633
aI168177
aI37111
aI102649
aI88106
aI37119
aI82646
aI102673
aI168210
aI69907
aI13239
aI69910
aI37143
aI102684
aI69927
aI135465
aI135468
aI69934
aI37174
aI69945
aI201021
aI201022
aI102720
aI201026
aI37188
aI4425
aI4427
aI4429
aI4431
aI37200
aI168276
aI28046
aI168280
aI102745
aI102746
aI69984
aI102753
aI4452
aI102759
aI168303
aI37232
aI37233
aI120894
aI4472
aI135548
aI8878
aI135554
aI102791
aI4490
aI4493
aI135568
aI44440
aI37267
aI131822
aI102806
aI37274
aI102813
aI168350
aI135584
aI168358
aI201133
aI70065
aI37299
aI37302
aI168376
aI135610
aI135613
aI190322
aI37326
aI102863
aI102864
aI102871
aI135641
aI70106
aI37343
aI4578
aI82683
aI4580
aI55800
aI168429
aI70128
aI135673
aI168443
aI44458
aI102911
aI135680
aI102914
aI230145
aI168460
aI70160
aI4625
aI135700
aI37398
aI70167
aI37403
aI37406
aI168482
aI135715
aI70183
aI135724
aI135729
aI70194
aI135732
aI37429
aI201271
aI201275
aI4671
aI6240
aI4681
aI37453
aI135760
aI168529
aI168538
aI153701
aI37474
aI70243
aI201320
aI4714
aI37487
aI70256
aI37489
aI135799
aI70268
aI4733
aI37502
aI17173
aI70272
aI103041
aI37506
aI4742
aI88172
aI37515
aI55405
aI4752
aI103057
aI66329
aI148250
aI37536
aI795
aI37543
aI37559
aI103102
aI103106
aI201411
aI168644
aI70342
aI103111
aI70346
aI135887
aI803
aI201431
aI37595
aI131877
aI11072
aI37604
aI135910
aI135911
aI70386
aI4851
aI204203
aI201471
aI37633
aI168708
aI103175
aI37641
aI70417
aI137347
aI168724
aI70421
aI121278
aI4892
aI201504
aI118005
aI37668
aI201512
aI201514
aI120967
aI135981
aI103217
aI37682
aI4917
aI37703
aI201544
aI201547
aI168782
aI201551
aI201560
aI136035
aI70506
aI201579
aI136046
aI168815
aI201586
aI136051
aI103287
aI70522
aI168827
aI37757
aI103302
aI121366
aI103307
aI168844
aI136081
aI201618
aI5012
aI136086
aI37783
aI136117
aI201654
aI168892
aI103357
aI103365
aI37832
aI136139
aI234444
aI201682
aI39075
aI201684
aI70623
aI5091
aI103396
aI136166
aI136168
aI96189
aI103405
aI103406
aI168944
aI103412
aI104617
aI201720
aI5117
aI70655
aI168965
aI17239
aI122458
aI121005
aI50008
aI37906
aI5141
aI201751
aI37913
aI5147
aI70684
aI201758
aI5151
aI136232
aI169001
aI5163
aI136240
aI136242
aI5175
aI170164
aI213855
aI70716
aI5185
aI103491
aI37958
aI201799
aI136264
aI70734
aI5212
aI201821
aI37983
aI46001
aI136292
aI201829
aI201831
aI103530
aI38004
aI38008
aI201849
aI103555
aI38020
aI169093
aI5254
aI71873
aI201871
aI201872
aI201876
aI136341
aI5270
aI136344
aI22724
aI5278
aI103584
aI70817
aI38054
aI70823
aI103593
aI169135
aI201906
aI201908
aI103607
aI82804
aI38078
aI201919
aI103619
aI103621
aI103623
aI136393
aI169164
aI121037
aI197496
aI70885
aI70886
aI71889
aI136428
aI169203
aI103668
aI70902
aI70910
aI38144
aI169220
aI142892
aI103690
aI38156
aI197506
aI38158
aI201999
aI202001
aI202002
aI5395
aI38166
aI121049
aI202011
aI136476
aI38174
aI134389
aI5412
aI103717
aI136494
aI202031
aI103737
aI70973
aI38209
aI70978
aI169288
aI38224
aI103761
aI71000
aI169309
aI38238
aI71008
aI38241
aI103778
aI38246
aI208444
aI39143
aI71022
aI5487
aI38256
aI169329
aI60992
aI202130
aI103830
aI136605
aI38306
aI169379
aI5540
aI38310
aI169383
aI136616
aI103852
aI103855
aI5555
aI71093
aI38334
aI71104
aI136645
aI136647
aI44620
aI78747
aI169422
aI5584
aI112873
aI38356
aI71128
aI16553
aI103901
aI71141
aI38379
aI202222
aI5616
aI5619
aI88318
aI5623
aI169464
aI202234
aI38396
aI38397
aI71172
aI5637
aI38412
aI192088
aI38419
aI169495
aI5657
aI38426
aI38429
aI202270
aI5682
aI136755
aI202298
aI136763
aI38460
aI202307
aI104005
aI136776
aI202313
aI104011
aI5708
aI136787
aI202324
aI38485
aI136793
aI5726
aI169574
aI38506
aI104045
aI71279
aI38512
aI71283
aI169605
aI5773
aI104079
aI136852
aI170265
aI169625
aI38554
aI192111
aI38564
aI169647
aI169649
aI202420
aI5816
aI170271
aI104124
aI71358
aI5824
aI235202
aI169669
aI104738
aI104143
aI5842
aI136916
aI38622
aI169700
aI38630
aI136938
aI136939
aI66514
aI202478
aI38639
aI38640
aI202481
aI71412
aI22825
aI104184
aI38650
aI169724
aI104196
aI38671
aI71451
aI104226
aI202536
aI104233
aI104236
aI22834
aI104239
aI38707
aI104244
aI71477
aI169786
aI137020
aI71485
aI202561
aI38724
aI202565
aI38726
aI137031
aI104264
aI104265
aI38732
aI38737
aI169811
aI169823
aI71520
aI202598
aI38759
aI71532
aI169838
aI202608
aI38773
aI137080
aI104313
aI104317
aI104319
aI137089
aI56939
aI38791
aI202632
aI137100
aI38804
aI169881
aI169883
aI104348
aI11930
aI104355
aI13295
aI104364
aI137133
aI137139
aI6073
aI11935
aI202686
aI71616
aI132087
aI71628
aI38862
aI38867
aI104406
aI148473
aI137176
aI104409
aI137182
aI38885
aI104422
aI104423
aI38890
aI17405
aI6129
aI6133
aI71670
aI38904
aI159402
aI104449
aI169991
aI170003
aI170004
aI71703
aI202778
aI71711
aI137251
aI38951
aI38958
aI202802
aI170035
aI6203
aI38973
aI130051
aI137570
aI6228
aI202838
aI71767
aI39000
aI6233
aI115727
aI137310
aI39008
aI71781
aI39017
aI137323
aI6265
aI170107
aI170111
aI137344
aI170113
aI6275
aI104580
aI71821
aI137368
aI148507
aI104613
aI39081
aI71852
aI202926
aI104623
aI61128
aI6324
aI170167
aI39100
aI137407
aI39105
aI71878
aI170188
aI202957
aI170192
aI39121
aI202962
aI104662
aI71902
aI71903
aI104673
aI170211
aI202982
aI175825
aI55676
aI202990
aI104692
aI137461
aI170233
aI39163
aI6396
aI170368
aI39171
aI111337
aI71941
aI137478
aI39175
aI104714
aI235787
aI6415
aI104720
aI104722
aI6425
aI170269
aI104735
aI6434
aI6440
aI39216
aI71985
aI203058
aI71989
aI71993
aI203069
aI50407
aI203074
aI72008
aI170380
aI203082
aI203086
aI203087
aI203089
aI72020
aI170330
aI72032
aI104802
aI137572
aI6501
aI72043
aI72044
aI72056
aI104829
aI186773
aI104832
aI72070
aI137609
aI72074
aI170391
aI39308
aI72079
aI203152
aI137621
aI104855
aI72088
aI83012
aI39323
aI6557
aI39326
aI72096
aI104867
aI39334
aI6573
aI104878
aI39325
aI72116
aI170422
aI72120
aI203196
aI77557
aI104864
aI39363
aI39364
aI61174
aI170438
aI137678
aI137679
aI39376
aI72147
aI170455
aI39385
aI104923
aI72162
aI137700
aI6629
aI6632
aI39401
aI203246
aI72176
aI137713
aI72180
aI72181
aI137723
aI39421
aI39422
aI214102
aI104968
aI72201
aI1111
aI104973
aI6670
aI104975
aI104982
aI137751
aI104984
aI203289
aI39458
aI170532
aI39461
aI72230
aI6695
aI39464
aI105003
aI39471
aI203312
aI170546
aI137792
aI6723
aI6727
aI170569
aI6732
aI72271
aI6750
aI72287
aI105057
aI39529
aI203370
aI6765
aI72309
aI39542
aI170615
aI39545
aI203386
aI6779
aI105084
aI105085
aI72319
aI72323
aI210814
aI105094
aI39560
aI137867
aI105100
aI137869
aI6800
aI6803
aI203416
aI170650
aI137887
aI203428
aI170665
aI105135
aI105139
aI137908
aI72375
aI105146
aI105148
aI72381
aI137920
aI6850
aI39619
aI72388
aI72389
aI39622
aI6855
aI105165
aI105166
aI170703
aI39632
aI72402
aI203476
aI39637
aI203479
aI39641
aI6876
aI39645
aI72416
aI6881
aI6886
aI39658
aI170731
aI39662
aI148605
aI6899
aI37328
aI137973
aI203511
aI60494
aI170749
aI39681
aI170758
aI137992
aI137996
aI63516
aI72463
aI6928
aI138002
aI170776
aI50308
aI39708
aI6947
aI138021
aI170798
aI203571
aI39732
aI170809
aI39738
aI138043
aI6982
aI72520
aI39769
aI170843
aI137701
aI105317
aI39782
aI7015
aI203625
aI7021
aI39791
aI7025
aI138098
aI7029
aI105334
aI170875
aI7041
aI88555
aI106074
aI105354
aI39819
aI7054
aI170895
aI7056
aI170898
aI110403
aI110405
aI186864
aI7074
aI105383
aI138159
aI203696
aI105394
aI236468
aI39861
aI72631
aI170936
aI105404
aI7105
aI138189
aI203729
aI138200
aI72667
aI39902
aI105441
aI138210
aI7139
aI105445
aI138221
aI105454
aI137726
aI72694
aI171000
aI236538
aI171003
aI171005
aI7166
aI94037
aI138240
aI7169
aI213009
aI39945
aI159575
aI171024
aI39956
aI132270
aI39958
aI138264
aI203801
aI138272
aI203810
aI72747
aI138285
aI105522
aI105526
aI137737
aI7224
aI171067
aI203837
aI203846
aI105543
aI40008
aI138315
aI138318
aI171088
aI40023
aI138328
aI7262
aI138336
aI105569
aI94054
aI72818
aI154131
aI203900
aI72831
aI171137
aI12139
aI171140
aI105605
aI138375
aI40078
aI40079
aI72851
aI203929
aI138402
aI203940
aI138405
aI138406
aI72871
aI72259
aI40118
aI105657
aI72891
aI171196
aI40126
aI7359
aI40128
aI23072
aI7362
aI40135
aI203978
aI7373
aI105679
aI171218
aI105683
aI203989
aI7385
aI171226
aI138463
aI138468
aI203302
aI204010
aI40171
aI105710
aI138483
aI72949
aI72957
aI6699
aI72968
aI55895
aI105741
aI40207
aI204051
aI40214
aI138526
aI171296
aI40231
aI40235
aI73006
aI204081
aI40244
aI73022
aI7488
aI7501
aI171344
aI7507
aI105816
aI73052
aI7518
aI73057
aI73058
aI7524
aI73066
aI105835
aI110483
aI138616
aI105850
aI204158
aI7551
aI7553
aI83179
aI7556
aI40327
aI73100
aI40333
aI126872
aI138642
aI73107
aI73109
aI73110
aI7575
aI40350
aI138667
aI105902
aI105906
aI204211
aI40372
aI105912
aI73146
aI171453
aI138687
aI40391
aI7625
aI40395
aI40401
aI171477
aI138712
aI171486
aI171488
aI204259
aI7653
aI73193
aI73195
aI138732
aI138736
aI7665
aI138742
aI138744
aI171515
aI192426
aI7679
aI171531
aI73228
aI66819
aI73236
aI138774
aI171545
aI40478
aI171552
aI7715
aI214278
aI138799
aI106036
aI40503
aI189023
aI40511
aI138817
aI73283
aI171590
aI106057
aI73296
aI171610
aI73310
aI106082
aI7781
aI7782
aI138856
aI5715
aI171636
aI40567
aI73337
aI138874
aI138878
aI171649
aI73350
aI73357
aI138897
aI40596
aI7829
aI73366
aI40600
aI40601
aI171674
aI214300
aI138922
aI7855
aI40624
aI171701
aI40631
aI106174
aI137845
aI204487
aI73418
aI73421
aI7887
aI7899
aI204508
aI138973
aI138977
aI171746
aI138980
aI40678
aI73447
aI204521
aI204522
aI171755
aI204524
aI94162
aI7921
aI106228
aI139002
aI6783
aI106239
aI171784
aI187010
aI40718
aI73487
aI171795
aI106260
aI7957
aI106264
aI171806
aI106272
aI106275
aI39558
aI197937
aI139049
aI171820
aI73521
aI204594
aI110558
aI139064
aI40764
aI106302
aI203404
aI106316
aI139085
aI106318
aI40785
aI106322
aI40793
aI139105
aI139108
aI40808
aI106345
aI204651
aI8044
aI106349
aI106351
aI106352
aI139121
aI8050
aI8052
aI73590
aI8056
aI214335
aI94186
aI8065
aI73603
aI171909
aI139149
aI139150
aI106390
aI171928
aI40860
aI73629
aI8094
aI8098
aI171939
aI8103
aI73640
aI139177
aI106423
aI40894
aI70103
aI139209
aI106442
aI8139
aI73679
aI139217
aI40918
aI40919
aI77818
aI106469
aI139247
aI40952
aI30824
aI73724
aI40962
aI8197
aI40966
aI172042
aI40973
aI204814
aI172047
aI172048
aI73746
aI204820
aI73749
aI204823
aI8217
aI172060
aI172066
aI139300
aI176134
aI139302
aI72371
aI172088
aI8253
aI73793
aI73794
aI172102
aI73802
aI6839
aI7911
aI61454
aI106582
aI172119
aI172125
aI172127
aI144305
aI73826
aI8293
aI41062
aI204905
aI204907
aI204909
aI41074
aI106613
aI73846
aI106624
aI41091
aI41097
aI8330
aI41103
aI72387
aI139416
aI204959
aI41120
aI41124
aI8360
aI73900
aI73901
aI139442
aI204981
aI106683
aI8384
aI41157
aI106700
aI73936
aI34168
aI41174
aI172252
aI203472
aI139491
aI87571
aI139509
aI205051
aI41212
aI205054
aI214400
aI8450
aI127019
aI139527
aI8458
aI8460
aI205073
aI41240
aI106777
aI41244
aI205091
aI172326
aI41257
aI8492
aI74033
aI74034
aI172345
aI8506
aI172347
aI74047
aI74051
aI172359
aI205134
aI139600
aI139607
aI41308
aI205151
aI106850
aI126627
aI74090
aI139634
aI41332
aI172409
aI41340
aI106883
aI41349
aI8593
aI61507
aI41366
aI74135
aI122959
aI74140
aI106909
aI139679
aI172448
aI139683
aI41380
aI205221
aI41382
aI8621
aI172464
aI106932
aI139702
aI41407
aI74179
aI205252
aI205254
aI8650
aI139727
aI139733
aI106966
aI74201
aI172508
aI205284
aI74213
aI106983
aI121596
aI74225
aI151942
aI41465
aI41467
aI107007
aI205323
aI74252
aI23298
aI74256
aI41493
aI139800
aI172569
aI74270
aI41503
aI8740
aI205350
aI41511
aI172585
aI41517
aI205358
aI41519
aI172594
aI74293
aI74301
aI107070
aI107071
aI172612
aI41542
aI8776
aI105228
aI74315
aI107085
aI12387
aI107095
aI107097
aI205408
aI41569
aI74339
aI105234
aI8815
aI41587
aI139893
aI172663
aI205435
aI205438
aI139906
aI107140
aI74374
aI107144
aI107145
aI8842
aI187159
aI205459
aI41621
aI41622
aI172701
aI139940
aI41646
aI74419
aI107190
aI107191
aI18845
aI107193
aI74430
aI8898
aI205508
aI139973
aI172747
aI205526
aI205536
aI41700
aI140007
aI172781
aI8952
aI107258
aI8957
aI140031
aI41731
aI41732
aI172806
aI41737
aI165336
aI172818
aI172819
aI74517
aI107287
aI74520
aI74521
aI74523
aI41758
aI140068
aI176262
aI74535
aI74544
aI172858
aI74555
aI143498
aI140094
aI107331
aI74565
aI107337
aI107338
aI205643
aI74580
aI140118
aI41817
aI41820
aI41821
aI172901
aI107366
aI110737
aI205674
aI209042
aI107375
aI41840
aI205688
aI172921
aI74618
aI140159
aI205700
aI9093
aI9094
aI41869
aI205714
aI41880
aI107419
aI172957
aI50672
aI140204
aI140214
aI9144
aI41917
aI107455
aI41920
aI41924
aI205767
aI205768
aI205775
aI74704
aI99832
aI205788
aI173021
aI159910
aI107496
aI74732
aI140269
aI74737
aI140281
aI140291
aI107533
aI61613
aI74772
aI127150
aI74774
aI170841
aI42010
aI74782
aI42015
aI107552
aI74786
aI107556
aI42024
aI173100
aI205871
aI42040
aI74813
aI176309
aI9280
aI173121
aI74820
aI58139
aI9291
aI42060
aI205902
aI42064
aI42066
aI205907
aI140377
aI107610
aI107614
aI173151
aI205920
aI42083
aI107622
aI42104
aI42105
aI107642
aI74876
aI74885
aI74886
aI9351
aI9352
aI205965
aI9360
aI140436
aI173207
aI205983
aI42150
aI205992
aI140460
aI42157
aI74931
aI9399
aI42174
aI107711
aI206016
aI9409
aI173250
aI203638
aI106153
aI107722
aI74958
aI74961
aI173270
aI173271
aI140512
aI42209
aI250183
aI42212
aI78034
aI140527
aI181800
aI61651
aI74996
aI173301
aI42235
aI83498
aI140542
aI9480
aI42250
aI206092
aI75022
aI173328
aI140563
aI107796
aI165422
aI206103
aI140586
aI75053
aI107826
aI206132
aI42295
aI140601
aI173371
aI75070
aI206143
aI75072
aI9539
aI140613
aI181815
aI42316
aI75087
aI88974
aI138127
aI9564
aI42336
aI105360
aI75106
aI75111
aI75112
aI42345
aI140650
aI173422
aI9583
aI238963
aI181822
aI206198
aI9594
aI173445
aI107911
aI77790
aI75150
aI88985
aI42392
aI75164
aI75172
aI173479
aI42415
aI9649
aI107954
aI107959
aI206264
aI9669
aI75207
aI42441
aI173514
aI173517
aI107982
aI75216
aI173521
aI206290
aI140768
aI132688
aI75236
aI75240
aI42474
aI7079
aI206318
aI140785
aI140795
aI206333
aI173566
aI42495
aI140804
aI173573
aI42504
aI108041
aI108045
aI75278
aI75280
aI108050
aI173590
aI75290
aI108060
aI42527
aI142172
aI42538
aI75309
aI108078
aI140853
aI173625
aI42558
aI75329
aI108101
aI173638
aI75335
aI108109
aI75343
aI9808
aI7096
aI206420
aI140886
aI192783
aI173662
aI34405
aI9824
aI214630
aI42602
aI206443
aI140910
aI173682
aI108149
aI198250
aI42624
aI108171
aI108185
aI42650
aI75422
aI206496
aI42659
aI173732
aI75429
aI173735
aI108200
aI9900
aI108212
aI42680
aI108224
aI108227
aI75461
aI173769
aI75467
aI96350
aI141010
aI9942
aI108249
aI173787
aI9948
aI173790
aI75487
aI206560
aI141025
aI173796
aI173802
aI75502
aI42735
aI75505
aI141048
aI206591
aI141061
aI181889
aI149123
aI108311
aI75553
aI10018
aI23515
aI75557
aI206630
aI108329
aI42797
aI206645
aI75580
aI108358
aI42824
aI108362
aI42828
aI108365
aI75601
aI39907
aI173908
aI173910
aI106175
aI75617
aI89062
aI108397
aI10094
aI206706
aI42873
aI141181
aI108416
aI206723
aI75662
aI75665
aI108436
aI108437
aI141209
aI42906
aI173980
aI42918
aI173991
aI173993
aI75690
aI141242
aI42944
aI42945
aI174022
aI174024
aI42953
aI206794
aI75725
aI206802
aI174037
aI75735
aI75738
aI75740
aI34469
aI206817
aI75759
aI10225
aI42997
aI10238
aI108551
aI206858
aI206861
aI75792
aI75794
aI43028
aI181934
aI174104
aI108572
aI174116
aI141355
aI165554
aI43054
aI141368
aI10298
aI50869
aI141376
aI108609
aI75853
aI10323
aI43092
aI108630
aI239703
aI206936
aI239707
aI108639
aI206945
aI141412
aI50876
aI174187
aI174192
aI43123
aI171028
aI149183
aI225642
aI141438
aI43139
aI108677
aI75911
aI203800
aI141458
aI43159
aI207000
aI141467
aI10397
aI207007
aI10400
aI43172
aI75942
aI132807
aI10412
aI43181
aI75954
aI108723
aI177110
aI141497
aI43195
aI174269
aI43200
aI127076
aI108741
aI138921
aI10444
aI43219
aI45433
aI10457
aI75994
aI108765
aI10467
aI108773
aI76009
aI174316
aI43247
aI10482
aI10486
aI10488
aI76032
aI76036
aI141574
aI192897
aI154199
aI43276
aI43277
aI174351
aI207123
aI141590
aI174360
aI10523
aI207132
aI76066
aI108839
aI174378
aI141611
aI138290
aI43311
aI43314
aI34526
aI43320
aI108864
aI176523
aI207178
aI76110
aI10575
aI76112
aI43349
aI76122
aI108897
aI174438
aI10602
aI108908
aI10608
aI207217
aI174463
aI174467
aI174468
aI10630
aI141704
aI43404
aI43405
aI165115
aI76185
aI174492
aI10654
aI108966
aI43432
aI76202
aI141739
aI43437
aI10670
aI141750
aI76217
aI141755
aI141758
aI76230
aI174545
aI76243
aI154702
aI109014
aI43480
aI109025
aI76266
aI141803
aI43500
aI10733
aI182013
aI43514
aI154709
aI43526
aI109064
aI143789
aI109073
aI109081
aI109084
aI76318
aI43551
aI76324
aI141863
aI141865
aI10795
aI207404
aI141869
aI10798
aI174643
aI174644
aI43573
aI240182
aI174648
aI109121
aI141890
aI10819
aI43593
aI10826
aI76364
aI109133
aI174670
aI141904
aI141909
aI10838
aI43607
aI43608
aI76377
aI207452
aI174685
aI214800
aI10850
aI141931
aI43633
aI207487
aI10884
aI76427
aI76432
aI109204
aI76440
aI76441
aI10911
aI76456
aI174761
aI141995
aI76460
aI141997
aI207540
aI207545
aI174779
aI174782
aI10944
aI43717
aI142025
aI207567
aI174801
aI109268
aI43739
aI76509
aI207583
aI76515
aI76516
aI76517
aI207591
aI43757
aI76535
aI174840
aI109305
aI43773
aI11006
aI11007
aI76548
aI143830
aI174861
aI43792
aI43793
aI40067
aI142101
aI142106
aI40069
aI76576
aI207650
aI109351
aI176604
aI11050
aI174892
aI240431
aI43826
aI142133
aI207673
aI76602
aI39649
aI109372
aI11070
aI109376
aI143840
aI11077
aI29153
aI43851
aI207697
aI109394
aI76629
aI11098
aI43868
aI76637
aI43870
aI43872
aI207714
aI174949
aI132926
aI142200
aI165695
aI142208
aI142209
aI76674
aI109444
aI132929
aI11145
aI174986
aI11148
aI11150
aI43923
aI45550
aI109462
aI214852
aI142235
aI175009
aI76706
aI175013
aI76710
aI76712
aI76714
aI11179
aI76717
aI207790
aI109494
aI43962
aI43965
aI207806
aI11201
aI207815
aI11209
aI175051
aI11212
aI207822
aI43984
aI142289
aI43993
aI109530
aI175068
aI207841
aI127483
aI175081
aI142314
aI11249
aI207859
aI175095
aI207871
aI207875
aI207879
aI11274
aI175116
aI109581
aI175118
aI142353
aI76821
aI207894
aI34649
aI44056
aI207898
aI109605
aI109606
aI44071
aI51036
aI142382
aI44083
aI44086
aI175163
aI142398
aI175179
aI109644
aI175183
aI44114
aI44115
aI11349
aI44123
aI44127
aI109664
aI142433
aI11362
aI76903
aI7356
aI111122
aI76911
aI142449
aI171199
aI175230
aI44160
aI29536
aI109705
aI109709
aI76944
aI109713
aI175255
aI109736
aI11434
aI142509
aI44206
aI142512
aI56520
aI44210
aI11447
aI142524
aI11457
aI142532
aI208070
aI44236
aI44239
aI44243
aI175323
aI11486
aI77023
aI44256
aI11500
aI208114
aI142582
aI77049
aI44284
aI44295
aI109833
aI77073
aI44310
aI44312
aI11545
aI208155
aI175388
aI11560
aI175412
aI142650
aI208187
aI11580
aI44355
aI77128
aI44361
aI77137
aI175442
aI208214
aI11607
aI142681
aI11621
aI175462
aI208231
aI44396
aI175471
aI77168
aI182163
aI175481
aI109950
aI145508
aI142724
aI11655
aI23789
aI67480
aI44436
aI175510
aI175512
aI44442
aI175518
aI208288
aI77219
aI208294
aI77224
aI142761
aI11690
aI77228
aI110001
aI11704
aI23796
aI120414
aI208317
aI142782
aI110016
aI44485
aI77255
aI23799
aI208332
aI110037
aI133028
aI142812
aI44509
aI44510
aI110047
aI175591
aI11752
aI142825
aI175595
aI208366
aI44527
aI44529
aI208370
aI208376
aI175609
aI142851
aI142854
aI77320
aI142862
aI110101
aI110104
aI142874
aI110107
aI77349
aI175660
aI110127
aI175669
aI175672
aI142908
aI44607
aI11841
aI77384
aI110153
aI208459
aI208460
aI77390
aI138509
aI175698
aI45667
aI175702
aI175703
aI142937
aI44639
aI142954
aI110189
aI11886
aI77432
aI110203
aI142978
aI175748
aI154903
aI208525
aI110222
aI175760
aI208529
aI208533
aI110230
aI149444
aI143002
aI208539
aI143004
aI77471
aI175778
aI175782
aI143020
aI110253
aI77490
aI110260
aI175802
aI44731
aI110270
aI110272
aI208578
aI44740
aI143046
aI175816
aI175817
aI11982
aI208593
aI77522
aI175827
aI44757
aI208601
aI208603
aI44766
aI77536
aI208613
aI208623
aI208625
aI110323
aI44789
aI208632
aI115739
aI143120
aI175890
aI12052
aI175896
aI12062
aI77600
aI110369
aI143138
aI77603
aI143140
aI45702
aI143143
aI44847
aI44848
aI175921
aI12082
aI143155
aI12086
aI171316
aI77626
aI18399
aI143164
aI44863
aI110402
aI44867
aI143173
aI143175
aI143176
aI110415
aI126869
aI143192
aI77658
aI193167
aI77660
aI44895
aI78481
aI208744
aI77673
aI110443
aI44908
aI44916
aI143224
aI208768
aI110467
aI176004
aI143237
aI44936
aI176009
aI110476
aI208782
aI12179
aI143264
aI44961
aI44968
aI77737
aI44973
aI208816
aI44977
aI12211
aI110519
aI208826
aI208829
aI176068
aI45001
aI176075
aI45006
aI45020
aI45022
aI176095
aI143329
aI208866
aI110563
aI143334
aI154961
aI77808
aI105157
aI45045
aI110585
aI110586
aI77821
aI176127
aI110593
aI176130
aI110595
aI77830
aI143375
aI208916
aI12310
aI45084
aI143394
aI110627
aI143396
aI77862
aI208937
aI204126
aI110647
aI176186
aI124317
aI12352
aI110659
aI110662
aI176203
aI77902
aI176208
aI176213
aI176215
aI45144
aI176219
aI77923
aI77927
aI143467
aI209011
aI12404
aI154985
aI209020
aI209021
aI77951
aI12416
aI110722
aI176259
aI143492
aI143494
aI143497
aI45194
aI77966
aI77969
aI45202
aI77975
aI45209
aI209051
aI77980
aI209053
aI110750
aI77983
aI77986
aI45225
aI110763
aI89458
aI110768
aI209077
aI45248
aI45255
aI127693
aI209105
aI12498
aI78039
aI45272
aI171386
aI110816
aI110819
aI45285
aI45287
aI45292
aI78061
aI51240
aI78068
aI176377
aI78075
aI143620
aI209162
aI78099
aI198702
aI176406
aI176407
aI143640
aI110875
aI45340
aI12576
aI110881
aI209188
aI78117
aI78123
aI176428
aI143666
aI110899
aI73525
aI78136
aI176443
aI209220
aI110917
aI209227
aI45392
aI143697
aI209235
aI209236
aI110933
aI143702
aI176475
aI176477
aI12638
aI12640
aI143713
aI45416
aI176491
aI143731
aI209271
aI78201
aI209275
aI176513
aI209282
aI45445
aI176519
aI78219
aI84034
aI209302
aI176537
aI53888
aI176545
aI45476
aI143781
aI78247
aI176552
aI45485
aI78257
aI45490
aI78259
aI111029
aI143802
aI176579
aI111047
aI209361
aI176595
aI111062
aI12761
aI111067
aI78300
aI176608
aI78305
aI78306
aI176611
aI45543
aI111080
aI176619
aI78318
aI78332
aI209406
aI111104
aI12801
aI176643
aI111115
aI143886
aI12815
aI209425
aI45586
aI143894
aI143899
aI78367
aI78370
aI78371
aI111147
aI143917
aI78383
aI143923
aI143366
aI94986
aI78400
aI78402
aI209477
aI12870
aI12871
aI143944
aI78411
aI78416
aI78422
aI45656
aI78428
aI204218
aI209507
aI78439
aI133223
aI78445
aI143984
aI45681
aI12914
aI12920
aI209530
aI78467
aI209540
aI12934
aI45707
aI12941
aI45711
aI12945
aI111251
aI176792
aI45726
aI78495
aI78503
aI78504
aI78506
aI78507
aI176812
aI176813
aI176815
aI78513
aI78518
aI209593
aI78526
aI138699
aI100470
aI176839
aI176845
aI209614
aI144084
aI111321
aI78555
aI209628
aI176867
aI111333
aI13032
aI45801
aI111339
aI111344
aI45810
aI78583
aI111353
aI176892
aI111357
aI45822
aI100480
aI45827
aI111365
aI45830
aI176903
aI209677
aI13083
aI78624
aI209701
aI144166
aI209721
aI111420
aI166026
aI7648
aI45890
aI111428
aI209733
aI209738
aI78668
aI45903
aI209746
aI45910
aI144220
aI144224
aI45921
aI45922
aI111461
aI45926
aI111467
aI144236
aI242543
aI45937
aI45938
aI78714
aI7659
aI78728
aI209802
aI144267
aI177036
aI78658
aI177041
aI111506
aI13206
aI13207
aI13208
aI209819
aI177052
aI45893
aI209830
aI45991
aI111529
aI144300
aI111537
aI78773
aI209846
aI177079
aI13247
aI13264
aI177108
aI144341
aI111574
aI209892
aI78829
aI46063
aI111603
aI46073
aI177147
aI46077
aI177150
aI62293
aI13322
aI209931
aI111630
aI188118
aI144407
aI78872
aI78875
aI209949
aI122373
aI13348
aI46117
aI177192
aI144428
aI144430
aI177204
aI185937
aI111671
aI111675
aI45920
aI138763
aI78917
aI78922
aI13388
aI13390
aI144464
aI111698
aI210004
aI177237
aI78934
aI210011
aI210015
aI210017
aI177251
aI13422
aI13425
aI46195
aI111733
aI210040
aI46205
aI78978
aI46211
aI78980
aI51394
aI144529
aI177301
aI144544
aI144545
aI133318
aI13481
aI210090
aI177325
aI79022
aI79025
aI79027
aI144564
aI144565
aI206673
aI144578
aI79045
aI177354
aI210124
aI177363
aI177364
aI79063
aI210137
aI13533
aI144608
aI79074
aI210148
aI51409
aI46320
aI111857
aI111858
aI111860
aI144632
aI177403
aI46332
aI144638
aI79111
aI46345
aI198871
aI79117
aI13582
aI51416
aI144673
aI46374
aI210215
aI177448
aI46378
aI176125
aI177460
aI111928
aI144708
aI18657
aI46409
aI111949
aI177486
aI111951
aI79185
aI177497
aI111962
aI46436
aI210284
aI111990
aI79230
aI144768
aI13702
aI210311
aI79246
aI177553
aI46482
aI204355
aI79252
aI177557
aI210328
aI46495
aI46498
aI79267
aI177573
aI13736
aI144810
aI144811
aI177584
aI13747
aI46520
aI177593
aI45983
aI67829
aI112065
aI13762
aI177605
aI198903
aI79311
aI46548
aI133369
aI13785
aI177626
aI210399
aI210403
aI89681
aI133372
aI210411
aI79340
aI177655
aI46585
aI46588
aI144893
aI79369
aI112140
aI177678
aI210447
aI210448
aI46611
aI46613
aI46616
aI177690
aI79387
aI7770
aI177695
aI112161
aI144930
aI112163
aI13233
aI79401
aI79402
aI177713
aI177716
aI112183
aI210491
aI46654
aI112192
aI79430
aI210503
aI112200
aI79433
aI144970
aI79435
aI46669
aI177750
aI46680
aI144986
aI46683
aI210539
aI13936
aI171624
aI145013
aI13942
aI46719
aI46720
aI177793
aI112258
aI112259
aI177803
aI79503
aI13972
aI46744
aI51482
aI177823
aI177825
aI177831
aI79529
aI145071
aI14000
aI46770
aI112311
aI79544
aI73572
aI79554
aI210627
aI112325
aI136858
aI210634
aI112332
aI79567
aI14035
aI14036
aI145109
aI112342
aI112344
aI145113
aI112348
aI79582
aI112351
aI112354
aI46820
aI112364
aI177902
aI177904
aI210675
aI171646
aI35113
aI145146
aI210688
aI78806
aI177927
aI177929
aI46867
aI145173
aI145174
aI177946
aI112412
aI112419
aI145194
aI79659
aI102223
aI112432
aI79668
aI112437
aI46902
aI145210
aI79675
aI14140
aI177984
aI145225
aI46927
aI46928
aI145234
aI112468
aI14165
aI178006
aI112473
aI178010
aI14172
aI79709
aI46949
aI46955
aI210801
aI46962
aI210804
aI166206
aI112502
aI112506
aI112510
aI112511
aI46976
aI46981
aI112523
aI112527
aI88855
aI79761
aI198979
aI79766
aI14232
aI78831
aI145308
aI112546
aI112556
aI47023
aI47025
aI178100
aI79797
aI178102
aI14263
aI178106
aI14270
aI14273
aI145347
aI79815
aI14283
aI79820
aI112591
aI95404
aI178132
aI79831
aI62458
aI79843
aI145385
aI145389
aI47088
aI210929
aI47091
aI47095
aI79864
aI178170
aI210943
aI145410
aI112643
aI145412
aI206701
aI178201
aI14362
aI178204
aI145438
aI182621
aI79922
aI112694
aI211000
aI14393
aI178234
aI45050
aI47171
aI145476
aI145483
aI112717
aI47182
aI79952
aI211026
aI178264
aI47193
aI14426
aI14430
aI79971
aI112740
aI47213
aI59402
aI112760
aI178299
aI178300
aI178303
aI47235
aI31957
aI211083
aI145548
aI47246
aI145553
aI57027
aI112790
aI178329
aI112796
aI47264
aI47265
aI80036
aI47269
aI14509
aI211119
aI80053
aI80062
aI211143
aI145608
aI145609
aI80074
aI178379
aI59405
aI171725
aI178384
aI47313
aI106191
aI18810
aI95269
aI211169
aI47330
aI103051
aI47334
aI80105
aI145647
aI178422
aI47359
aI145665
aI145668
aI178437
aI145670
aI178439
aI211210
aI112915
aI211225
aI178458
aI211227
aI145693
aI178466
aI47396
aI112934
aI47399
aI14632
aI145707
aI145708
aI80173
aI211248
aI112957
aI112958
aI211267
aI14662
aI178506
aI178510
aI100749
aI211280
aI112977
aI211282
aI145749
aI112984
aI112991
aI178531
aI178536
aI91053
aI40679
aI211309
aI14703
aI155368
aI122601
aI211321
aI80251
aI145788
aI211332
aI14725
aI80264
aI7916
aI47498
aI211339
aI47505
aI80274
aI47507
aI14741
aI178582
aI199065
aI47513
aI145818
aI47515
aI178589
aI113058
aI80291
aI211367
aI84381
aI47536
aI178609
aI211381
aI145849
aI47548
aI211390
aI178624
aI178626
aI145861
aI145865
aI113099
aI47571
aI47574
aI113114
aI40698
aI14815
aI113120
aI14817
aI211428
aI14823
aI211435
aI47597
aI62547
aI80373
aI47617
aI178695
aI14859
aI145932
aI211473
aI145943
aI211482
aI113179
aI211485
aI14892
aI145969
aI14899
aI80437
aI14902
aI145975
aI14905
aI14907
aI178750
aI145983
aI211521
aI80450
aI80455
aI113232
aI113233
aI146002
aI178771
aI7950
aI47702
aI211545
aI47707
aI199098
aI178784
aI113249
aI178789
aI146024
aI80494
aI14959
aI100882
aI80500
aI47735
aI80506
aI80509
aI146046
aI146047
aI146052
aI211594
aI80523
aI80526
aI113300
aI177262
aI178838
aI47768
aI47769
aI15009
aI47782
aI178855
aI178859
aI47789
aI113329
aI15026
aI15033
aI146110
aI46197
aI146113
aI15042
aI211651
aI211658
aI15054
aI199117
aI80600
aI113376
aI47841
aI113380
aI17960
aI80622
aI211710
aI80641
aI211715
aI178951
aI80650
aI146200
aI146201
aI15135
aI211747
aI146216
aI211757
aI178998
aI113471
aI47937
aI15170
aI146245
aI146246
aI113483
aI133603
aI80726
aI80729
aI146266
aI80735
aI113507
aI211817
aI146284
aI80759
aI113528
aI47994
aI15230
aI80767
aI80770
aI68075
aI146309
aI15239
aI179086
aI146319
aI179093
aI2690
aI15255
aI15257
aI113562
aI146332
aI113567
aI211872
aI48038
aI179114
aI122695
aI80812
aI166386
aI15288
aI113595
aI113598
aI48065
aI179139
aI179140
aI80840
aI211916
aI80845
aI211922
aI113619
aI158724
aI80864
aI113635
aI146406
aI48105
aI146410
aI113646
aI113647
aI179191
aI113659
aI179197
aI113663
aI80897
aI48131
aI211973
aI179206
aI155452
aI113673
aI211979
aI48145
aI15378
aI193710
aI179235
aI113704
aI146474
aI15407
aI113715
aI212022
aI2569
aI146489
aI146491
aI212040
aI179274
aI80971
aI113741
aI48209
aI212050
aI106340
aI15450
aI15454
aI81005
aI179311
aI179312
aI81011
aI179317
aI48248
aI48250
aI40811
aI113796
aI113797
aI103
aI179339
aI204653
aI212114
aI48275
aI48278
aI113816
aI179355
aI113825
aI106353
aI146600
aI179373
aI146608
aI146611
aI212148
aI113851
aI48322
aI57207
aI48333
aI15571
aI212180
aI15576
aI48346
aI113884
aI81127
aI146664
aI212201
aI81134
aI113905
aI146674
aI113907
aI48372
aI81149
aI48385
aI15634
aI179478
aI48418
aI179492
aI146725
aI81190
aI146735
aI81201
aI179512
aI179514
aI81212
aI150069
aI177376
aI81223
aI24460
aI212300
aI212305
aI81234
aI81235
aI15711
aI212324
aI146791
aI197514
aI81265
aI48499
aI48500
aI114041
aI146811
aI212348
aI114045
aI48511
aI8086
aI48522
aI81291
aI146828
aI114062
aI15761
aI146834
aI114069
aI146843
aI81309
aI48542
aI81313
aI146850
aI48548
aI179636
aI81336
aI81337
aI15807
aI114112
aI179652
aI221089
aI114122
aI81360
aI111864
aI179667
aI15828
aI212441
aI146906
aI15842
aI81387
aI146925
aI81390
aI212466
aI81402
aI15869
aI146942
aI199255
aI114189
aI179733
aI35417
aI81432
aI48665
aI212507
aI210695
aI114206
aI114212
aI15910
aI179753
aI144647
aI146989
aI81455
aI114227
aI48693
aI212535
aI48705
aI147014
aI147017
aI81483
aI15950
aI48728
aI48735
aI179808
aI179810
aI114278
aI81512
aI182888
aI81528
aI179834
aI81533
aI48766
aI81535
aI147077
aI179849
aI212620
aI179858
aI212632
aI48794
aI179867
aI147100
aI147102
aI179876
aI81573
aI114342
aI147117
aI16051
aI147124
aI88916
aI16066
aI16069
aI16079
aI48848
aI114386
aI179924
aI245463
aI48860
aI212705
aI16098
aI16101
aI212724
aI114423
aI2719
aI212733
aI16130
aI179971
aI48900
aI81669
aI81673
aI179979
aI114444
aI133762
aI48920
aI16155
aI179996
aI179998
aI81701
aI212778
aI128306
aI114478
aI81711
aI212785
aI16178
aI114483
aI16183
aI48952
aI48953
aI180027
aI48959
aI16193
aI180038
aI16200
aI212811
aI81746
aI81747
aI81754
aI180059
aI172005
aI48992
aI101008
aI81765
aI147304
aI147305
aI81772
aI147312
aI212849
aI81783
aI68244
aI212861
aI24555
aI49031
aI49035
aI49041
aI49042
aI147347
aI84633
aI81820
aI16286
aI114598
aI212903
aI114600
aI147369
aI212906
aI49073
aI81845
aI147382
aI114619
aI212924
aI81854
aI114623
aI212928
aI114626
aI49093
aI81863
aI147402
aI147405
aI147407
aI81872
aI180179
aI81877
aI114649
aI49117
aI182949
aI212965
aI147433
aI49135
aI81909
aI180214
aI49143
aI16379
aI81916
aI147454
aI180224
aI49154
aI213004
aI147473
aI114706
aI19118
aI95577
aI81945
aI114714
aI213020
aI49185
aI147492
aI180261
aI180264
aI180266
aI81964
aI147504
aI114738
aI114740
aI213045
aI213051
aI81982
aI49216
aI213057
aI49236
aI114773
aI147542
aI147543
aI82009
aI180315
aI122896
aI180331
aI49263
aI213108
aI82039
aI139285
aI147584
aI147587
aI114823
aI49291
aI114829
aI16531
aI213141
aI114838
aI114841
aI213146
aI82078
aI180389
aI114857
aI114861
aI213171
aI16565
aI213179
aI147650
aI49348
aI213190
aI213193
aI180426
aI16587
aI213197
aI101069
aI147665
aI49369
aI82141
aI213214
aI49382
aI16615
aI213227
aI180461
aI49399
aI114938
aI82172
aI16638
aI147711
aI128384
aI180486
aI180490
aI82187
aI82188
aI114957
aI150232
aI49426
aI16661
aI114967
aI114970
aI114978
aI82211
aI147751
aI82216
aI49449
aI114989
aI82222
aI147763
aI213300
aI213301
aI115000
aI213305
aI213306
aI147771
aI180555
aI82253
aI147791
aI147797
aI82276
aI115050
aI180590
aI82299
aI82301
aI49537
aI16778
aI180619
aI180620
aI41026
aI213393
aI82323
aI82326
aI48569
aI147874
aI51953
aI16812
aI82350
aI180658
aI93306
aI16824
aI49604
aI49606
aI180679
aI49609
aI180683
aI82382
aI49616
aI213457
aI213458
aI210339
aI16853
aI147927
aI180696
aI188495
aI147933
aI82400
aI49633
aI199419
aI147940
aI49637
aI147943
aI147945
aI115180
aI16880
aI213489
aI213492
aI180726
aI49659
aI115196
aI147966
aI147967
aI49665
aI28918
aI115203
aI213513
aI49682
aI115219
aI213525
aI180759
aI82457
aI49694
aI213535
aI180768
aI46512
aI115235
aI155740
aI115244
aI115245
aI16944
aI49714
aI16948
aI148021
aI115254
aI148025
aI16955
aI213565
aI16958
aI49730
aI82500
aI49735
aI82508
aI49741
aI49746
aI148052
aI49752
aI139365
aI35600
aI82531
aI148068
aI62908
aI17003
aI213613
aI49774
aI115311
aI35604
aI82555
aI213629
aI148097
aI180867
aI213636
aI246411
aI17036
aI115341
aI82576
aI148122
aI19226
aI17056
aI180897
aI82594
aI161033
aI17070
aI115377
aI82610
aI82616
aI180921
aI115389
aI17086
aI180927
aI180933
aI17094
aI17095
aI115401
aI17100
aI115407
aI213712
aI148182
aI49882
aI101157
aI115425
aI49891
aI82660
aI17125
aI180966
aI82665
aI148203
aI82679
aI115451
aI148220
aI115453
aI82686
aI17151
aI49922
aI176243
aI17156
aI213767
aI181000
aI46551
aI115468
aI82708
aI148245
aI148246
aI181015
aI49946
aI181022
aI148259
aI213800
aI17195
aI115501
aI49966
aI49968
aI17201
aI115509
aI181046
aI213822
aI181063
aI115528
aI115529
aI213836
aI181079
aI82776
aI181082
aI115548
aI115551
aI148320
aI17249
aI17251
aI17258
aI35645
aI115569
aI115572
aI112105
aI17272
aI50044
aI84800
aI82826
aI213900
aI213904
aI213909
aI82840
aI50077
aI50080
aI161264
aI148391
aI82856
aI82858
aI82859
aI148410
aI181184
aI50117
aI213958
aI82893
aI213967
aI82896
aI82902
aI17370
aI213979
aI50144
aI50146
aI82921
aI115699
aI17397
aI50166
aI214008
aI115705
aI30207
aI214013
aI148478
aI214020
aI214021
aI181255
aI214027
aI148493
aI82959
aI214039
aI82971
aI105082
aI115746
aI50214
aI214057
aI148526
aI181295
aI82996
aI17461
aI46601
aI17464
aI17465
aI17471
aI115780
aI83015
aI115790
aI83024
aI181329
aI214100
aI148565
aI148566
aI115801
aI181338
aI17499
aI35685
aI115813
aI181352
aI181353
aI115819
aI83052
aI83056
aI181366
aI214135
aI115837
aI181376
aI115844
aI17544
aI115850
aI214158
aI50320
aI181393
aI148636
aI181408
aI181412
aI148654
aI13853
aI83131
aI148668
aI17598
aI148672
aI50370
aI214216
aI181452
aI83150
aI115920
aI181457
aI115923
aI148695
aI17625
aI214236
aI115935
aI50402
aI17639
aI101244
aI13863
aI17646
aI50416
aI50417
aI214259
aI17653
aI112169
aI50425
aI148735
aI106710
aI115974
aI115975
aI17672
aI148749
aI148753
aI214290
aI83220
aI181529
aI181531
aI181532
aI181533
aI83230
aI181535
aI181537
aI214306
aI50467
aI116005
aI181542
aI148775
aI83248
aI63027
aI17718
aI181567
aI155872
aI91154
aI17735
aI181576
aI17743
aI148816
aI214358
aI116059
aI148831
aI134032
aI148834
aI144955
aI50532
aI116069
aI50536
aI83306
aI17772
aI116078
aI148847
aI148851
aI116089
aI83326
aI181632
aI214402
aI181637
aI116102
aI183191
aI17808
aI17809
aI181652
aI17814
aI214423
aI83355
aI116126
aI148898
aI83364
aI148905
aI50603
aI188658
aI50606
aI214448
aI214449
aI210507
aI50632
aI214487
aI148953
aI148956
aI116191
aI83428
aI214505
aI50669
aI181743
aI181744
aI181745
aI214516
aI148987
aI148991
aI83463
aI83464
aI214541
aI181776
aI181777
aI149014
aI247321
aI149018
aI214556
aI181791
aI181794
aI17955
aI116260
aI50727
aI83496
aI116266
aI116267
aI181804
aI50740
aI50742
aI116279
aI187138
aI50748
aI149054
aI17987
aI93345
aI214607
aI116311
aI30308
aI83548
aI18015
aI181857
aI83558
aI116334
aI50800
aI50804
aI83574
aI214647
aI214648
aI83577
aI116346
aI116348
aI116349
aI50815
aI149121
aI50819
aI50824
aI214667
aI181904
aI205080
aI18068
aI83610
aI18076
aI50847
aI149154
aI3015
aI83630
aI214703
aI181941
aI83638
aI214711
aI116412
aI214717
aI83647
aI216011
aI57633
aI214731
aI214732
aI181966
aI214741
aI83671
aI149215
aI50918
aI18158
aI18159
aI182000
aI214770
aI214772
aI182005
aI182008
aI214781
aI149247
aI149248
aI149249
aI83719
aI50953
aI50955
aI83728
aI83729
aI83731
aI83732
aI214812
aI18205
aI30342
aI214829
aI214830
aI116527
aI50996
aI19422
aI18232
aI182084
aI116551
aI182102
aI149338
aI145039
aI149340
aI205114
aI149344
aI18284
aI149358
aI116596
aI83830
aI214907
aI83842
aI83844
aI128662
aI51084
aI182157
aI18319
aI116624
aI18322
aI18323
aI51092
aI51095
aI18337
aI116643
aI149412
aI149414
aI182183
aI51114
aI18348
aI182189
aI116659
aI18356
aI18357
aI149430
aI83908
aI18374
aI68602
aI83935
aI18401
aI149476
aI116709
aI182248
aI149481
aI182252
aI116717
aI51185
aI18418
aI116724
aI116727
aI116732
aI54079
aI149509
aI18441
aI83980
aI83983
aI83986
aI18451
aI51220
aI68612
aI182304
aI116769
aI116771
aI116776
aI51245
aI182318
aI149555
aI68617
aI149560
aI149568
aI182338
aI84035
aI182340
aI51270
aI149576
aI215116
aI116818
aI116841
aI149610
aI51313
aI182387
aI84089
aI51325
aI183317
aI182406
aI182407
aI116874
aI182413
aI84112
aI149656
aI116889
aI182429
aI51361
aI18594
aI182437
aI182440
aI149674
aI116908
aI84141
aI57715
aI116917
aI149687
aI116928
aI116930
aI149700
aI84165
aI81364
aI182480
aI18641
aI116949
aI51415
aI149720
aI149721
aI215258
aI18653
aI149728
aI182497
aI18674
aI149750
aI149755
aI3114
aI84224
aI149765
aI149770
aI84236
aI182543
aI18704
aI117018
aI166959
aI177884
aI84267
aI84268
aI182575
aI182584
aI51516
aI117053
aI149822
aI149823
aI18755
aI51525
aI84302
aI84305
aI182610
aI30435
aI51549
aI117094
aI117103
aI117106
aI51571
aI18806
aI18807
aI18809
aI51578
aI182652
aI117125
aI210668
aI84365
aI84367
aI51603
aI51604
aI51609
aI149914
aI149917
aI210672
aI149923
aI18854
aI117160
aI84394
aI134217
aI117177
aI182714
aI149949
aI84418
aI51662
aI149967
aI117200
aI172451
aI18901
aI117211
aI112378
aI84446
aI117215
aI182756
aI18918
aI51688
aI149994
aI51694
aI150003
aI117237
aI51703
aI150009
aI84476
aI182782
aI150015
aI84482
aI35547
aI18954
aI84496
aI117265
aI84504
aI117276
aI87922
aI117278
aI79621
aI182816
aI117285
aI150054
aI51752
aI182827
aI117299
aI84532
aI117301
aI84534
aI150074
aI117312
aI182855
aI19032
aI25018
aI19039
aI51810
aI19048
aI51822
aI150127
aI117364
aI51830
aI51835
aI19070
aI51852
aI182925
aI84623
aI128792
aI117394
aI117396
aI19095
aI19097
aI150170
aI51867
aI161562
aI117408
aI19109
aI175217
aI150184
aI117422
aI182959
aI150194
aI150200
aI117433
aI84667
aI117436
aI150207
aI194336
aI150214
aI84679
aI150222
aI84689
aI117458
aI51923
aI51926
aI51928
aI183004
aI183012
aI19174
aI84712
aI51945
aI84714
aI84716
aI51952
aI117489
aI117500
aI112426
aI150283
aI117522
aI84756
aI19221
aI117526
aI150295
aI150298
aI150299
aI150306
aI150311
aI150313
aI150325
aI183094
aI150330
aI150332
aI52032
aI84804
aI84806
aI183118
aI183120
aI52052
aI52058
aI84828
aI52062
aI84836
aI84841
aI205287
aI183153
aI52087
aI52104
aI150413
aI117649
aI150419
aI84887
aI84888
aI150429
aI183202
aI117668
aI117670
aI117672
aI52139
aI84914
aI19380
aI150456
aI84922
aI19392
aI117699
aI150470
aI84937
aI19403
aI52172
aI52175
aI84948
aI84950
aI19415
aI84956
aI183262
aI183461
aI52199
aI183273
aI117743
aI183285
aI84982
aI19448
aI52219
aI150532
aI84998
aI117768
aI183306
aI183315
aI19477
aI52249
aI19485
aI85025
aI198714
aI52263
aI117806
aI19503
aI117809
aI150578
aI183347
aI19510
aI150586
aI150587
aI52288
aI150600
aI52407
aI52300
aI150606
aI19536
aI19537
aI216146
aI183381
aI52318
aI150627
aI150628
aI150641
aI52341
aI52342
aI79723
aI117896
aI85138
aI52372
aI150680
aI150681
aI117915
aI117917
aI183456
aI108675
aI52389
aI19623
aI52394
aI183496
aI150706
aI19635
aI85172
aI19639
aI52408
aI19641
aI117950
aI85183
aI19655
aI52424
aI85195
aI183500
aI150735
aI150736
aI19671
aI117991
aI85227
aI145278
aI183547
aI118016
aI112512
aI183558
aI85265
aI118035
aI19732
aI150815
aI85280
aI52523
aI183597
aI85295
aI52529
aI52530
aI19767
aI14219
aI52554
aI85335
aI118105
aI118110
aI183647
aI150881
aI57915
aI118118
aI183661
aI139838
aI52598
aI150904
aI52610
aI52615
aI183694
aI183699
aI85396
aI85400
aI52640
aI85411
aI199921
aI150952
aI52654
aI183727
aI183729
aI134387
aI52660
aI183733
aI85434
aI52668
aI52669
aI199925
aI150979
aI150981
aI52682
aI85451
aI118221
aI238157
aI52700
aI85471
aI52706
aI85477
aI19946
aI52716
aI118257
aI151031
aI183800
aI151035
aI85500
aI19712
aI151043
aI85509
aI118280
aI118282
aI52755
aI85526
aI52759
aI118296
aI52761
aI156250
aI85537
aI151078
aI151093
aI118327
aI118328
aI123487
aI151100
aI52802
aI52805
aI74337
aI52810
aI52811
aI238179
aI118358
aI68880
aI52842
aI52847
aI52851
aI183931
aI118396
aI118406
aI85641
aI20109
aI183957
aI85655
aI183961
aI151194
aI151195
aI118429
aI183966
aI118432
aI183969
aI36124
aI118443
aI249523
aI20149
aI216758
aI20151
aI57972
aI118458
aI88515
aI199257
aI47052
aI184021
aI184022
aI85726
aI151265
aI85732
aI52967
aI85742
aI20210
aI52982
aI52984
aI52992
aI151300
aI27952
aI20241
aI184086
aI151327
aI53026
aI85797
aI118567
aI184104
aI20288
aI151361
aI118596
aI184143
aI184150
aI184151
aI20320
aI151393
aI85858
aI118628
aI151397
aI53107
aI20340
aI184181
aI85879
aI134463
aI20352
aI20355
aI85895
aI20366
aI242909
aI53139
aI53155
aI118696
aI151467
aI53169
aI20402
aI184249
aI71277
aI184258
aI20419
aI85956
aI183990
aI118748
aI145402
aI118751
aI118756
aI151526
aI161788
aI20466
aI86003
aI86008
aI184316
aI118781
aI151564
aI172718
aI20502
aI210948
aI53275
aI86047
aI151584
aI86049
aI151586
aI118819
aI184356
aI20519
aI184360
aI53293
aI53299
aI213454
aI118847
aI102159
aI118849
aI86082
aI118858
aI184400
aI53333
aI118871
aI151641
aI118876
aI86109
aI20576
aI159990
aI151650
aI53355
aI53357
aI118902
aI90815
aI151677
aI86146
aI118918
aI20619
aI53389
aI151700
aI217239
aI118937
aI118941
aI151720
aI72702
aI118963
aI184500
aI184502
aI86200
aI151741
aI184512
aI53441
aI151748
aI53447
aI86224
aI86231
aI151778
aI184547
aI151783
aI55246
aI53483
aI53485
aI53490
aI53495
aI184575
aI20740
aI184584
aI184587
aI86284
aI119056
aI58072
aI151827
aI119067
aI20765
aI20767
aI194608
aI20772
aI86309
aI184615
aI123612
aI184620
aI63538
aI151859
aI184628
aI53557
aI53561
aI184636
aI151869
aI151876
aI86343
aI20809
aI186185
aI211001
aI53596
aI119138
aI53605
aI119144
aI184681
aI86380
aI53623
aI86393
aI122901
aI260160
aI151938
aI119174
aI119177
aI119179
aI119183
aI200088
aI151954
aI119188
aI20888
aI20889
aI207341
aI184740
aI86437
aI119208
aI151977
aI151979
aI119218
aI119223
aI119224
aI151998
aI20937
aI58103
aI53708
aI119245
aI150947
aI41722
aI119274
aI36263
aI184812
aI53747
aI86521
aI184832
aI20994
aI161878
aI53766
aI86550
aI156420
aI86554
aI119324
aI63308
aI119330
aI21030
aI119338
aI152108
aI119343
aI119345
aI21045
aI152118
aI119352
aI53817
aI152122
aI53820
aI35617
aI200118
aI53830
aI86615
aI79972
aI86619
aI119390
aI21091
aI119396
aI21094
aI86635
aI53872
aI86641
aI86645
aI86647
aI200127
aI152188
aI53885
aI152190
aI152192
aI53890
aI86663
aI145517
aI184987
aI53917
aI53918
aI52677
aI8987
aI119462
aI53932
aI185005
aI119474
aI21175
aI86714
aI21186
aI150989
aI152276
aI185062
aI167377
aI145532
aI185067
aI86767
aI152311
aI54014
aI54015
aI54017
aI13801
aI119562
aI86796
aI119566
aI54032
aI54035
aI21269
aI208023
aI152354
aI54056
aI119596
aI152367
aI119602
aI119607
aI86847
aI130554
aI54085
aI119622
aI86866
aI190567
aI185189
aI152423
aI152426
aI21361
aI123710
aI152443
aI86909
aI86914
aI178326
aI152461
aI54159
aI119697
aI86930
aI185238
aI86936
aI218012
aI194714
aI119714
aI185251
aI54180
aI119731
aI21433
aI54202
aI86971
aI185280
aI54213
aI86984
aI54218
aI54221
aI185295
aI152537
aI87005
aI87006
aI80037
aI119779
aI119781
aI87016
aI183804
aI119789
aI54257
aI119797
aI87032
aI21499
aI21501
aI87041
aI152578
aI85505
aI21516
aI152591
aI152596
aI185370
aI152603
aI185372
aI119839
aI21536
aI123739
aI54310
aI54312
aI54322
aI200201
aI21572
aI119879
aI87116
aI54349
aI214580
aI54359
aI87141
aI185452
aI119919
aI118291
aI14526
aI152697
aI54400
aI129216
aI194753
aI152714
aI156525
aI152720
aI119955
aI185492
aI54422
aI19993
aI87197
aI54431
aI54432
aI54435
aI87204
aI87205
aI21670
aI54439
aI87210
aI178375
aI21680
aI152753
aI185526
aI87227
aI185534
aI87231
aI54473
aI185554
aI185557
aI120025
aI54491
aI73829
aI183846
aI120038
aI138206
aI87294
aI87301
aI87302
aI87303
aI120077
aI54545
aI152855
aI21784
aI87322
aI152867
aI74630
aI87336
aI120105
aI54579
aI54582
aI54585
aI185660
aI54589
aI52789
aI120129
aI185670
aI101943
aI21836
aI63714
aI120145
aI120155
aI21854
aI21858
aI21860
aI152933
aI152935
aI185710
aI185711
aI120182
aI145641
aI54649
aI120187
aI194795
aI222102
aI87431
aI54673
aI120211
aI185748
aI120220
aI213133
aI152997
aI87466
aI120235
aI120237
aI21941
aI153014
aI87480
aI120249
aI120253
aI87488
aI183883
aI54724
aI47350
aI153033
aI153038
aI87511
aI163310
aI185819
aI54749
aI87520
aI87521
aI87523
aI87526
aI162044
aI69202
aI196112
aI54768
aI120309
aI87543
aI120319
aI54785
aI185860
aI153098
aI120334
aI156589
aI87569
aI54802
aI22035
aI54811
aI22044
aI54816
aI87586
aI22058
aI165495
aI54830
aI185912
aI54842
aI120381
aI153152
aI120385
aI22084
aI20065
aI107448
aI251476
aI54870
aI54871
aI54878
aI153184
aI22120
aI185964
aI185968
aI54897
aI185970
aI87673
aI69226
aI153215
aI87680
aI153217
aI96757
aI120462
aI87697
aI186003
aI87700
aI120479
aI22181
aI54950
aI68389
aI22203
aI120509
aI54975
aI54981
aI22216
aI186062
aI186064
aI110944
aI80164
aI153306
aI153311
aI153313
aI120549
aI120550
aI55018
aI14631
aI120559
aI178472
aI144831
aI120568
aI22266
aI120576
aI186114
aI186115
aI167553
aI153355
aI251661
aI153369
aI55070
aI55074
aI120615
aI186152
aI87854
aI120626
aI58334
aI120635
aI55103
aI186181
aI186182
aI87881
aI22350
aI87890
aI55125
aI186203
aI22370
aI120680
aI153449
aI120682
aI186219
aI55152
aI87921
aI153458
aI153460
aI153468
aI55167
aI22407
aI151191
aI22416
aI192405
aI153494
aI120727
aI87960
aI120730
aI22433
aI205809
aI22444
aI13461
aI22448
aI120755
aI186292
aI55222
aI55234
aI22474
aI120781
aI120782
aI55251
aI120790
aI153559
aI179694
aI88026
aI88027
aI91130
aI88031
aI153570
aI55267
aI36518
aI22506
aI22507
aI22508
aI88045
aI88052
aI22517
aI22521
aI120826
aI22525
aI153601
aI207245
aI120844
aI231828
aI88082
aI55317
aI55318
aI22555
aI120862
aI55327
aI55329
aI186402
aI55332
aI120874
aI55342
aI120881
aI167603
aI102934
aI88126
aI85685
aI167695
aI88133
aI88138
aI85687
aI153344
aI120918
aI55384
aI88155
aI186461
aI120930
aI120931
aI88165
aI88168
aI55404
aI88173
aI55407
aI120944
aI113000
aI55411
aI129385
aI153720
aI88186
aI55419
aI142601
aI120959
aI153729
aI120965
aI55431
aI186505
aI153740
aI153742
aI22673
aI153746
aI88212
aI55445
aI55450
aI173082
aI118470
aI22696
aI186541
aI186543
aI22707
aI140318
aI85705
aI121019
aI55484
aI121021
aI121028
aI121033
aI55500
aI140322
aI55504
aI55506
aI113017
aI153816
aI55513
aI88282
aI121051
aI186589
aI22754
aI55525
aI186600
aI186602
aI121067
aI88302
aI88308
aI153852
aI153853
aI22782
aI88319
aI153859
aI88325
aI121102
aI153871
aI153879
aI186648
aI186649
aI121114
aI186651
aI121116
aI186653
aI55593
aI88365
aI121138
aI88378
aI121148
aI31114
aI123957
aI55618
aI121155
aI153928
aI55625
aI22858
aI121166
aI55639
aI88416
aI88418
aI153955
aI88424
aI186729
aI186732
aI121212
aI22910
aI55680
aI121220
aI186762
aI186768
aI36590
aI154009
aI55706
aI14746
aI36592
aI145819
aI55716
aI121256
aI55721
aI216818
aI55730
aI55740
aI88509
aI88510
aI186819
aI80290
aI129444
aI121308
aI55781
aI23014
aI88554
aI23019
aI154092
aI121327
aI23024
aI88566
aI186872
aI154118
aI88584
aI55819
aI23052
aI121357
aI88595
aI55830
aI128430
aI55835
aI23068
aI88608
aI194992
aI107699
aI186922
aI88621
aI121394
aI140382
aI121404
aI55874
aI55875
aI23115
aI23122
aI55893
aI186967
aI186968
aI3855
aI23135
aI154212
aI55915
aI186988
aI23157
aI88694
aI55928
aI121470
aI121474
aI88710
aI154247
aI187016
aI121484
aI88717
aI187023
aI121488
aI187031
aI200474
aI121506
aI154280
aI121516
aI121518
aI134942
aI23229
aI154303
aI56000
aI43021
aI56007
aI187080
aI154314
aI78279
aI63951
aI56030
aI23265
aI56040
aI178643
aI187124
aI189566
aI56054
aI121592
aI23289
aI56060
aI154370
aI154372
aI178646
aI121616
aI187158
aI23319
aI121624
aI187163
aI187164
aI211418
aI173189
aI154401
aI187172
aI56101
aI56105
aI56107
aI121655
aI80351
aI187198
aI23359
aI121668
aI88902
aI162273
aI121673
aI187211
aI154450
aI88915
aI121684
aI187224
aI56164
aI23398
aI145895
aI23406
aI154500
aI154502
aI23433
aI56204
aI56206
aI187281
aI162286
aI53060
aI220061
aI56228
aI56231
aI183000
aI89005
aI23471
aI89008
aI23482
aI154559
aI23493
aI124065
aI121802
aI121808
aI56274
aI154586
aI121819
aI89056
aI187363
aI121830
aI187367
aI154604
aI56303
aI187376
aI187377
aI187378
aI121848
aI89083
aI89091
aI74924
aI56333
aI154645
aI23574
aI110989
aI187422
aI121893
aI56364
aI135005
aI121907
aI121912
aI121914
aI56379
aI56386
aI121924
aI187465
aI89162
aI121934
aI56405
aI56413
aI89183
aI89202
aI187508
aI154743
aI31252
aI154746
aI172505
aI89227
aI154765
aI56464
aI135022
aI122021
aI187559
aI122024
aI187563
aI89262
aI122032
aI122036
aI187574
aI89271
aI205289
aI56507
aI154824
aI189644
aI154826
aI89300
aI154837
aI187610
aI187614
aI23777
aI23783
aI56552
aI154859
aI187628
aI154861
aI56564
aI220407
aI56574
aI154893
aI187663
aI187669
aI56599
aI154904
aI187677
aI122148
aI122151
aI154921
aI122160
aI145971
aI89400
aI154939
aI79356
aI89409
aI36748
aI31287
aI154957
aI122193
aI154962
aI53134
aI187736
aI154973
aI122217
aI89451
aI151442
aI122225
aI56690
aI122227
aI56694
aI155002
aI155004
aI58602
aI36757
aI89479
aI155020
aI122253
aI123004
aI122258
aI23956
aI122261
aI200602
aI23973
aI155050
aI155054
aI155055
aI155058
aI122294
aI89527
aI155065
aI56767
aI89538
aI184227
aI56789
aI56790
aI122328
aI56793
aI24028
aI187871
aI89578
aI155119
aI69544
aI122355
aI89589
aI24056
aI187897
aI56832
aI200478
aI89605
aI122375
aI56843
aI187917
aI122385
aI89621
aI155159
aI56858
aI56863
aI56868
aI118705
aI71726
aI89645
aI24113
aI187957
aI122423
aI24122
aI56891
aI122428
aI36789
aI24132
aI187983
aI122449
aI56914
aI24154
aI187995
aI155243
aI188012
aI188019
aI173332
aI150290
aI56956
aI89725
aI206101
aI24201
aI24209
aI56978
aI184259
aI122517
aI155291
aI162416
aI188068
aI237582
aI57003
aI64114
aI89774
aI188083
aI89781
aI146036
aI24255
aI89794
aI89795
aI155332
aI188106
aI24270
aI188112
aI188113
aI57042
aI57046
aI155351
aI24280
aI57053
aI122591
aI57062
aI169934
aI188137
aI188138
aI122609
aI89843
aI188150
aI89853
aI24320
aI57091
aI89861
aI155400
aI24333
aI188181
aI122649
aI122653
aI57127
aI57135
aI57137
aI57143
aI122684
aI57151
aI188228
aI57159
aI57161
aI122698
aI122703
aI122719
aI24425
aI155502
aI122742
aI89975
aI162452
aI155519
aI188289
aI188290
aI188291
aI89989
aI57222
aI188300
aI57229
aI140611
aI155542
aI113305
aI122777
aI90010
aI57246
aI57247
aI24481
aI57250
aI24487
aI90024
aI188344
aI155578
aI57280
aI122821
aI221128
aI155596
aI90064
aI122835
aI57311
aI122854
aI57323
aI90092
aI53245
aI155632
aI196130
aI155643
aI90108
aI188413
aI173397
aI155648
aI188422
aI122887
aI57360
aI90133
aI155670
aI188440
aI122912
aI188465
aI57401
aI155707
aI122940
aI135179
aI188488
aI57423
aI90193
aI57426
aI122963
aI57434
aI188508
aI188510
aI188512
aI188514
aI155749
aI57448
aI90218
aI254065
aI57460
aI24693
aI90231
aI57465
aI123002
aI123003
aI57468
aI90240
aI24708
aI123016
aI90249
aI123019
aI188558
aI24723
aI188570
aI123036
aI200730
aI155807
aI57506
aI188585
aI188587
aI90286
aI135197
aI155828
aI90293
aI123065
aI188606
aI205957
aI184352
aI90311
aI188618
aI90318
aI188628
aI178894
aI57562
aI155870
aI123104
aI57571
aI129745
aI57580
aI57583
aI123122
aI188662
aI123138
aI188675
aI155909
aI90377
aI155918
aI48837
aI188691
aI90401
aI57635
aI90404
aI123176
aI24875
aI155949
aI155952
aI123189
aI57658
aI15072
aI155970
aI155972
aI57678
aI123225
aI188767
aI57696
aI90465
aI178919
aI123250
aI90483
aI102463
aI57728
aI90504
aI24972
aI57341
aI107928
aI247427
aI57749
aI188838
aI188839
aI57770
aI90543
aI90546
aI156090
aI156095
aI123329
aI25027
aI221639
aI90576
aI90581
aI123353
aI90588
aI156129
aI188905
aI206247
aI57836
aI57839
aI25072
aI188914
aI188920
aI25086
aI156159
aI181948
aI90626
aI188940
aI156177
aI193966
aI195332
aI57883
aI90654
aI90655
aI57889
aI123426
aI25135
aI57906
aI123446
aI25147
aI90684
aI90689
aI57925
aI156230
aI90695
aI123466
aI221772
aI189007
aI157112
aI156245
aI123482
aI156255
aI57954
aI25188
aI123497
aI123499
aI57964
aI123504
aI25202
aI25204
aI156279
aI57976
aI57978
aI57982
aI57991
aI57994
aI90763
aI57997
aI90766
aI189073
aI123541
aI58006
aI58011
aI214702
aI213611
aI123559
aI58027
aI189101
aI123569
aI140745
aI90811
aI123580
aI123583
aI58049
aI90822
aI90823
aI146211
aI156372
aI58069
aI156375
aI156376
aI162596
aI25306
aI90844
aI90847
aI123617
aI90853
aI90856
aI58091
aI90860
aI25334
aI90871
aI90874
aI123644
aI58109
aI168638
aI189188
aI156421
aI156423
aI58122
aI58128
aI58129
aI90903
aI156443
aI58140
aI25376
aI58148
aI90918
aI58151
aI25385
aI123690
aI58160
aI25397
aI90935
aI58169
aI58173
aI58174
aI123711
aI102539
aI173537
aI25417
aI189260
aI90957
aI90958
aI58200
aI25433
aI90971
aI142694
aI123754
aI123757
aI58223
aI123763
aI86164
aI58235
aI203773
aI91020
aI146242
aI189326
aI123795
aI58260
aI91029
aI25494
aI86169
aI123802
aI91037
aI58274
aI123812
aI123817
aI58282
aI123821
aI156601
aI156602
aI123836
aI189377
aI146251
aI123849
aI123850
aI123851
aI156624
aI91093
aI91098
aI25565
aI91102
aI58349
aI58352
aI189431
aI123898
aI156668
aI175433
aI222207
aI58368
aI189444
aI91141
aI25606
aI123914
aI91148
aI123922
aI189468
aI123933
aI91653
aI58413
aI123951
aI123953
aI58421
aI58422
aI58424
aI58428
aI189507
aI156742
aI156749
aI58449
aI156758
aI91232
aI140816
aI189543
aI91240
aI156780
aI58480
aI91249
aI124019
aI91254
aI91255
aI91262
aI83783
aI58515
aI25750
aI25756
aI124063
aI189601
aI25762
aI25767
aI206364
aI206367
aI58556
aI124098
aI91331
aI124100
aI124101
aI25804
aI91347
aI156890
aI58587
aI91356
aI91370
aI124147
aI124148
aI58616
aI91385
aI189690
aI156925
aI25865
aI124177
aI189717
aI91418
aI58653
aI91425
aI124197
aI156973
aI255278
aI156989
aI189758
aI91456
aI124225
aI124227
aI91461
aI58695
aI189773
aI25954
aI174745
aI58726
aI189800
aI184551
aI157036
aI58733
aI58737
aI108094
aI157047
aI91512
aI157051
aI25983
aI157057
aI58758
aI157063
aI58762
aI91533
aI157078
aI124312
aI26009
aI80794
aI91550
aI189855
aI157090
aI124326
aI58798
aI58799
aI26034
aI97182
aI189880
aI91579
aI58221
aI222653
aI58814
aI58826
aI58827
aI124366
aI58834
aI157142
aI124375
aI189913
aI157147
aI124496
aI124387
aI58852
aI157160
aI91629
aI26095
aI189936
aI157170
aI91639
aI189944
aI124409
aI58875
aI26109
aI124418
aI58885
aI211884
aI58893
aI157203
aI184580
aI91674
aI124450
aI124453
aI189990
aI157226
aI26170
aI173663
aI91708
aI58942
aI91712
aI190018
aI58947
aI124486
aI124487
aI58955
aI58960
aI190035
aI58969
aI26204
aI53520
aI190051
aI124516
aI91749
aI91751
aI222844
aI157313
aI59010
aI200982
aI26250
aI26252
aI26255
aI190098
aI59028
aI124570
aI91808
aI26278
aI26286
aI59059
aI26294
aI91834
aI53535
aI59069
aI59075
aI152543
aI26311
aI26315
aI26318
aI190159
aI124627
aI124632
aI157404
aI190175
aI190179
aI190181
aI167820
aI26347
aI124658
aI59126
aI91897
aI91901
aI108160
aI124675
aI124684
aI190221
aI26383
aI124694
aI59166
aI157474
aI59178
aI190253
aI157486
aI124719
aI124725
aI124728
aI190267
aI124733
aI91969
aI59206
aI59208
aI157519
aI91987
aI162788
aI124762
aI92004
aI211942
aI59241
aI26475
aI59247
aI157554
aI26483
aI223092
aI124789
aI59257
aI141804
aI26501
aI157579
aI26511
aI157584
aI42649
aI124824
aI124827
aI190364
aI124838
aI59307
aI190382
aI124850
aI108190
aI59318
aI201035
aI59333
aI157644
aI157649
aI92116
aI92124
aI157666
aI173736
aI124914
aI201044
aI157691
aI157695
aI26624
aI42668
aI157706
aI187470
aI92173
aI92174
aI211971
aI26646
aI175468
aI190507
aI157743
aI59441
aI59442
aI124982
aI59447
aI157755
aI59453
aI26689
aI92237
aI59479
aI157787
aI125026
aI211985
aI125037
aI125039
aI190580
aI256126
aI26751
aI125060
aI59526
aI157832
aI184684
aI190603
aI26764
aI26766
aI26767
aI125077
aI59543
aI59550
aI108229
aI92323
aI157861
aI91847
aI125103
aI92339
aI26807
aI157885
aI26814
aI190659
aI125126
aI26835
aI59611
aI157922
aI157928
aI125163
aI206546
aI256241
aI125172
aI92409
aI125178
aI157948
aI59651
aI125188
aI92422
aI92429
aI190738
aI190741
aI26902
aI48175
aI190748
aI92449
aI59684
aI92453
aI141020
aI125227
aI125228
aI26927
aI20873
aI26937
aI59707
aI26948
aI206561
aI179255
aI39087
aI26959
aI59729
aI91875
aI92500
aI59734
aI125273
aI53647
aI125277
aI158050
aI92523
aI204656
aI59759
aI125302
aI61719
aI125310
aI92545
aI199485
aI190855
aI125321
aI158090
aI190860
aI125325
aI158103
aI158104
aI64580
aI158110
aI92587
aI157426
aI27061
aI59838
aI27078
aI158155
aI190926
aI59856
aI59857
aI130126
aI190936
aI125404
aI92643
aI125419
aI92654
aI190205
aI20904
aI59892
aI27126
aI59895
aI125434
aI158226
aI125460
aI179289
aI59928
aI125465
aI179290
aI206597
aI125476
aI92716
aI151986
aI80990
aI191032
aI191041
aI191043
aI27207
aI27208
aI53687
aI59985
aI158291
aI27222
aI125533
aI92767
aI92768
aI125541
aI27240
aI125546
aI100200
aI206611
aI191099
aI125567
aI125569
aI92805
aI158345
aI158348
aI60045
aI60046
aI60047
aI191120
aI191124
aI60061
aI125608
aI60075
aI60077
aI60079
aI191153
aI256691
aI53705
aI191160
aI92859
aI27327
aI17887
aI92867
aI158405
aI92872
aI173858
aI158418
aI191191
aI212090
aI27361
aI158437
aI158440
aI60137
aI27370
aI60140
aI125679
aI158449
aI53715
aI10025
aI199203
aI27385
aI191232
aI60161
aI108934
aI97409
aI27401
aI158035
aI168407
aI27412
aI137304
aI59183
aI125730
aI92964
aI158509
aI125744
aI125748
aI203864
aI125753
aI173877
aI60224
aI125766
aI125767
aI125771
aI191308
aI158546
aI60244
aI69360
aI191321
aI27484
aI93026
aI60263
aI60268
aI113302
aI60277
aI93050
aI27518
aI191359
aI125825
aI148219
aI96202
aI201197
aI27538
aI27544
aI60315
aI60317
aI60318
aI60322
aI60333
aI191408
aI60338
aI191416
aI60351
aI125891
aI93130
aI125902
aI125904
aI191449
aI27612
aI60381
aI93150
aI158687
aI158689
aI125923
aI60388
aI125927
aI239443
aI60404
aI60408
aI158713
aI27642
aI93180
aI60417
aI125956
aI120945
aI191498
aI158731
aI125967
aI27672
aI125977
aI93220
aI125990
aI93223
aI93228
aI27695
aI60473
aI27713
aI141153
aI191563
aI224333
aI126030
aI27729
aI126036
aI60507
aI173925
aI170618
aI93287
aI27753
aI93294
aI93295
aI27762
aI92009
aI27770
aI130239
aI257150
aI60544
aI195776
aI60546
aI119318
aI60555
aI209331
aI191631
aI158868
aI158869
aI191639
aI27800
aI191641
aI184858
aI27806
aI158881
aI93346
aI126117
aI93351
aI27818
aI191661
aI60595
aI126134
aI60603
aI60604
aI179403
aI27846
aI60616
aI158921
aI60623
aI191698
aI60632
aI93403
aI60641
aI158949
aI191720
aI4647
aI27889
aI27893
aI93431
aI60670
aI97493
aI126209
aI126214
aI93447
aI93453
aI60686
aI191759
aI93460
aI126238
aI27937
aI60707
aI168497
aI179420
aI27946
aI93487
aI191792
aI93489
aI126268
aI191806
aI93509
aI131867
aI60746
aI191821
aI204973
aI159059
aI93527
aI126297
aI93530
aI126300
aI27997
aI93539
aI93542
aI184892
aI100788
aI28027
aI28028
aI60799
aI60800
aI75474
aI115502
aI168513
aI60808
aI126346
aI26519
aI159117
aI191886
aI130285
aI126354
aI93591
aI159128
aI93595
aI28060
aI21061
aI28069
aI159149
aI212211
aI60853
aI126393
aI28090
aI191934
aI191935
aI159171
aI93636
aI191942
aI93639
aI60882
aI126421
aI126426
aI159199
aI126445
aI93679
aI60915
aI60917
aI60925
aI126462
aI126463
aI26539
aI192007
aI28168
aI28173
aI60942
aI93711
aI192022
aI159256
aI159257
aI28186
aI28188
aI28190
aI93730
aI28197
aI159270
aI93738
aI60977
aI224832
aI60993
aI124854
aI93766
aI152607
aI93773
aI184931
aI126551
aI28248
aI126558
aI126569
aI192110
aI61039
aI159351
aI192121
aI126586
aI61052
aI192126
aI159359
aI28294
aI174017
aI61065
aI61066
aI192140
aI28303
aI159376
aI28310
aI159388
aI126623
aI126624
aI192163
aI126630
aI93866
aI93867
aI159405
aI28334
aI93874
aI93878
aI61114
aI192189
aI93888
aI61124
aI126664
aI93897
aI192204
aI159454
aI126689
aI212262
aI192230
aI93927
aI126696
aI159467
aI28397
aI192241
aI159475
aI154795
aI159478
aI126716
aI37504
aI163115
aI192260
aI159500
aI61197
aI257820
aI93985
aI126755
aI201350
aI159528
aI192302
aI61231
aI94010
aI42975
aI159552
aI94019
aI126788
aI61255
aI94025
aI94026
aI61261
aI202702
aI159572
aI192341
aI28502
aI94039
aI28504
aI126809
aI94042
aI28507
aI61276
aI94051
aI28518
aI168593
aI192363
aI146070
aI178804
aI159604
aI159605
aI126838
aI159607
aI159610
aI159612
aI94077
aI28544
aI28557
aI94095
aI159633
aI159634
aI61333
aI61334
aI61335
aI58781
aI126874
aI61339
aI159648
aI94116
aI126885
aI61354
aI59378
aI61359
aI61361
aI28596
aI184990
aI126902
aI126903
aI159673
aI119455
aI28604
aI126916
aI196265
aI61392
aI94161
aI192466
aI192469
aI61411
aI61413
aI61416
aI61418
aI159724
aI94191
aI28656
aI179539
aI159742
aI192515
aI94215
aI61449
aI192523
aI126990
aI94223
aI127004
aI258088
aI28715
aI127020
aI159793
aI26634
aI28739
aI61509
aI159818
aI94285
aI94287
aI159824
aI61524
aI94294
aI127064
aI127068
aI192607
aI94308
aI61544
aI94321
aI37566
aI159871
aI61571
aI94346
aI127116
aI185026
aI61589
aI94359
aI127132
aI192671
aI28832
aI192678
aI159912
aI166812
aI61612
aI127149
aI94382
aI127154
aI81267
aI28854
aI179572
aI94394
aI94402
aI94404
aI94417
aI94419
aI61657
aI127194
aI94427
aI28892
aI192744
aI192747
aI94454
aI94457
aI28923
aI61693
aI61696
aI61700
aI61701
aI94475
aI61708
aI61711
aI61714
aI127253
aI160023
aI186456
aI210461
aI61725
aI28964
aI160039
aI127273
aI61742
aI127279
aI127282
aI94517
aI61751
aI192827
aI28989
aI29000
aI127305
aI94541
aI94542
aI94549
aI94550
aI160090
aI29020
aI61794
aI94568
aI127337
aI61802
aI29036
aI127349
aI29047
aI61820
aI61821
aI29057
aI127366
aI206913
aI127369
aI127370
aI61837
aI94617
aI61851
aI160157
aI179611
aI192932
aI160171
aI29102
aI29109
aI160201
aI29138
aI29140
aI61911
aI94683
aI61919
aI61921
aI61922
aI127460
aI160231
aI61935
aI209377
aI127480
aI94714
aI29179
aI29180
aI86785
aI127500
aI127506
aI193044
aI61976
aI94764
aI62005
aI94774
aI29239
aI193087
aI29253
aI26070
aI62031
aI48568
aI29268
aI146873
aI94808
aI127580
aI127582
aI62054
aI127595
aI127596
aI127604
aI32191
aI94846
aI94850
aI193156
aI62085
aI42439
aI193163
aI127628
aI29327
aI29328
aI98087
aI127634
aI193172
aI94869
aI62107
aI127652
aI94885
aI127660
aI63172
aI29367
aI127672
aI211566
aI62148
aI94921
aI160460
aI193229
aI62163
aI127702
aI160484
aI160489
aI94963
aI62196
aI29429
aI29433
aI94976
aI29441
aI160516
aI29448
aI127753
aI127754
aI127757
aI62222
aI193299
aI127769
aI62239
aI193317
aI160550
aI181018
aI103218
aI127793
aI193339
aI95037
aI62287
aI193362
aI190606
aI160607
aI193376
aI127854
aI127860
aI119615
aI95103
aI226185
aI29579
aI29582
aI160661
aI29590
aI226202
aI95133
aI127903
aI29605
aI29608
aI62383
aI29622
aI59551
aI95165
aI127942
aI127944
aI95181
aI127950
aI127959
aI174244
aI29661
aI95200
aI95201
aI29670
aI29676
aI29680
aI127985
aI130558
aI95226
aI62466
aI62472
aI128012
aI193553
aI97795
aI160794
aI29726
aI128032
aI170115
aI211578
aI193575
aI196104
aI207027
aI128057
aI146111
aI160831
aI193600
aI29761
aI193607
aI29769
aI160847
aI95315
aI160852
aI95329
aI62566
aI193641
aI200669
aI185191
aI29804
aI160878
aI29807
aI128116
aI95349
aI128118
aI128124
aI3690
aI95358
aI193664
aI128130
aI193670
aI179735
aI95376
aI114200
aI193684
aI201582
aI114201
aI130588
aI160939
aI160940
aI62638
aI128176
aI62646
aI193721
aI62650
aI95422
aI128194
aI62660
aI193736
aI224677
aI123202
aI65058
aI128206
aI29906
aI193748
aI182124
aI29933
aI62708
aI161014
aI128247
aI95484
aI128265
aI62730
aI95502
aI32301
aI29977
aI29979
aI209404
aI193823
aI3181
aI95538
aI163379
aI193844
aI30019
aI30027
aI128332
aI161111
aI30041
aI128347
aI30052
aI62821
aI62822
aI95591
aI128364
aI30063
aI193914
aI62843
aI193920
aI179777
aI95624
aI30092
aI161169
aI30102
aI161176
aI193949
aI62878
aI30126
aI193976
aI161212
aI30145
aI62920
aI30158
aI30159
aI128465
aI62930
aI30166
aI161250
aI161257
aI194032
aI62961
aI95730
aI95732
aI128502
aI161272
aI161274
aI30204
aI128511
aI95745
aI194052
aI30217
aI161303
aI30234
aI63005
aI30239
aI157958
aI194092
aI115576
aI95795
aI30267
aI194108
aI207733
aI63050
aI95820
aI207117
aI30293
aI30295
aI95833
aI128602
aI128612
aI147046
aI30310
aI95849
aI63086
aI30320
aI179816
aI63098
aI63099
aI194172
aI194176
aI194182
aI194189
aI30352
aI128657
aI95894
aI63128
aI194204
aI37829
aI194211
aI226990
aI95921
aI95923
aI161472
aI95938
aI95940
aI161479
aI128723
aI30425
aI157989
aI161504
aI161507
aI63204
aI139587
aI207143
aI95982
aI37843
aI128762
aI63229
aI63230
aI63232
aI63233
aI207147
aI194312
aI96009
aI97922
aI194319
aI128787
aI128789
aI30488
aI30489
aI194330
aI128800
aI96034
aI194345
aI128814
aI209422
aI54239
aI30525
aI128830
aI128836
aI63305
aI63307
aI96076
aI128849
aI128850
aI161621
aI194390
aI161623
aI63320
aI96090
aI210778
aI30559
aI30562
aI128873
aI96108
aI70632
aI194429
aI194436
aI30600
aI194442
aI30603
aI52302
aI96142
aI30609
aI96152
aI147098
aI63392
aI161698
aI152561
aI30635
aI30637
aI96174
aI209426
aI96180
aI96182
aI128952
aI63421
aI161729
aI63428
aI30662
aI194505
aI194506
aI96209
aI128981
aI30680
aI212644
aI128987
aI117140
aI97957
aI161761
aI30695
aI167965
aI194541
aI30707
aI227319
aI96248
aI129019
aI129020
aI63490
aI30725
aI129030
aI129034
aI96270
aI96274
aI30742
aI161820
aI190811
aI194597
aI129067
aI161837
aI96303
aI129072
aI194610
aI63547
aI161853
aI30784
aI63558
aI129095
aI96335
aI96336
aI63569
aI129110
aI30807
aI30814
aI161887
aI96360
aI163516
aI168978
aI129137
aI96375
aI194681
aI194683
aI63618
aI63624
aI63630
aI30863
aI194708
aI30872
aI161946
aI194715
aI161948
aI63645
aI161950
aI114373
aI63649
aI136219
aI96420
aI133055
aI63660
aI96433
aI161972
aI37919
aI96448
aI152608
aI30914
aI194755
aI30919
aI194764
aI30925
aI63695
aI63700
aI63701
aI162010
aI96475
aI129247
aI194786
aI96483
aI63716
aI63718
aI162027
aI63724
aI179922
aI96501
aI43585
aI129276
aI96512
aI63745
aI96517
aI63750
aI162056
aI63771
aI129309
aI162079
aI129314
aI162085
aI129321
aI96555
aI162092
aI96560
aI96562
aI129334
aI190857
aI31033
aI96571
aI162112
aI170640
aI169015
aI48866
aI96590
aI63823
aI162130
aI194902
aI79204
aI147173
aI96609
aI96610
aI162153
aI195256
aI63868
aI31102
aI194946
aI63875
aI31112
aI194954
aI43417
aI96668
aI96674
aI260516
aI96678
aI129453
aI129456
aI96689
aI190878
aI162230
aI129466
aI31163
aI63932
aI63934
aI195010
aI195011
aI119885
aI129490
aI31192
aI63961
aI78509
aI98043
aI195054
aI162293
aI129529
aI64001
aI96773
aI162317
aI64020
aI195105
aI31271
aI195112
aI169052
aI129580
aI162356
aI129591
aI162363
aI96837
aI84443
aI31309
aI96846
aI195151
aI31316
aI31320
aI162394
aI64093
aI64095
aI96871
aI31336
aI64112
aI31346
aI32531
aI174526
aI129655
aI195194
aI162429
aI195198
aI129663
aI162432
aI162433
aI64132
aI195207
aI114456
aI64148
aI31386
aI195228
aI96928
aI64165
aI96941
aI195250
aI162486
aI64184
aI136308
aI64189
aI31422
aI31424
aI96962
aI162501
aI162513
aI96982
aI195290
aI96987
aI57786
aI64224
aI64228
aI129767
aI181084
aI260843
aI97004
aI162548
aI7595
aI97024
aI129796
aI195340
aI31501
aI64273
aI195346
aI169091
aI162580
aI195349
aI162585
aI64284
aI162593
aI129828
aI129829
aI195372
aI129839
aI97076
aI64309
aI31544
aI185482
aI97086
aI104708
aI207329
aI129866
aI97101
aI129871
aI129876
aI114489
aI195416
aI103567
aI31583
aI162656
aI97123
aI162660
aI152719
aI129909
aI64374
aI129912
aI64377
aI31611
aI64384
aI158187
aI169110
aI97159
aI162697
aI31631
aI97170
aI97172
aI195478
aI136345
aI97180
aI162717
aI162718
aI62157
aI195500
aI195503
aI64432
aI180040
aI129972
aI31669
aI162746
aI31675
aI162751
aI195520
aI92662
aI195526
aI64459
aI97228
aI152739
aI195544
aI64477
aI31714
aI97252
aI103590
aI97256
aI64489
aI64490
aI64495
aI31737
aI162813
aI162816
aI152724
aI54443
aI97285
aI97289
aI31755
aI64527
aI64528
aI97297
aI5422
aI31764
aI162845
aI211646
aI195634
aI130101
aI153817
aI162876
aI97342
aI195652
aI64585
aI201911
aI64590
aI130134
aI162903
aI174607
aI31838
aI16229
aI64608
aI154096
aI130150
aI31850
aI130166
aI190996
aI162938
aI130171
aI83987
aI162945
aI97416
aI195721
aI195725
aI97422
aI64656
aI130196
aI31894
aI207385
aI5317
aI31914
aI169159
aI64692
aI64694
aI31930
aI174623
aI64703
aI163008
aI130242
aI130243
aI147319
aI64722
aI163029
aI31959
aI31964
aI210363
aI32635
aI87250
aI97524
aI195835
aI64768
aI64782
aI191021
aI195856
aI97553
aI32022
aI64796
aI163101
aI195871
aI120027
aI130341
aI130343
aI130344
aI130345
aI180103
aI97580
aI64823
aI97598
aI64832
aI97601
aI163140
aI32077
aI64846
aI195920
aI163157
aI163164
aI130397
aI64862
aI136421
aI228707
aI32101
aI64871
aI103655
aI151645
aI163185
aI32114
aI130429
aI130431
aI158273
aI32142
aI97680
aI228757
aI97687
aI97694
aI32159
aI196006
aI97707
aI130476
aI130480
aI64945
aI64955
aI109130
aI64959
aI163266
aI97735
aI32200
aI32209
aI64979
aI196052
aI163291
aI147366
aI125521
aI65001
aI163308
aI163309
aI65006
aI213420
aI196090
aI65020
aI163326
aI163327
aI130563
aI65028
aI65032
aI196109
aI163344
aI32276
aI196124
aI185605
aI32290
aI185606
aI165836
aI65069
aI65070
aI97840
aI196146
aI32307
aI196149
aI228918
aI163767
aI130651
aI65117
aI97887
aI32363
aI196206
aI16318
aI65143
aI163458
aI70934
aI196231
aI130696
aI229002
aI130700
aI130703
aI65171
aI61091
aI144017
aI147397
aI163489
aI196259
aI65189
aI27249
aI32425
aI65194
aI170431
aI130739
aI163511
aI32440
aI97980
aI196287
aI130756
aI97995
aI163533
aI163539
aI32473
aI68732
aI65267
aI32500
aI163575
aI163577
aI130811
aI196348
aI65278
aI130829
aI163603
aI202030
aI196375
aI130855
aI65324
aI32558
aI180189
aI98101
aI65334
aI32568
aI32579
aI163652
aI65351
aI98120
aI98127
aI65363
aI65377
aI130923
aI130924
aI136509
aI132022
aI163707
aI196476
aI32637
aI163714
aI130954
aI196493
aI32654
aI163732
aI196503
aI98200
aI65434
aI65439
aI98209
aI130979
aI65456
aI98225
aI98231
aI163768
aI163771
aI131006
aI196554
aI131019
aI32717
aI196565
aI79651
aI131040
aI147451
aI32740
aI192038
aI32748
aI131056
aI65524
aI196600
aI196604
a.